Component: ARM Compiler 5.06 update 2 (build 183) Tool: armlink [4d35b7]

==============================================================================

Section Cross References

    ucos_task.o(.text) refers to time.o(.text) for Get_Cycle_T
    ucos_task.o(.text) refers to mems.o(.text) for IMU_Read
    ucos_task.o(.text) refers to iic_vl53.o(.text) for Read_Ground_Key
    ucos_task.o(.text) refers to dflt_clz.o(x$fpl$dfltu) for __aeabi_ui2d
    ucos_task.o(.text) refers to drleqf.o(x$fpl$drleqf) for __aeabi_cdrcmple
    ucos_task.o(.text) refers to f2d.o(x$fpl$f2d) for __aeabi_f2d
    ucos_task.o(.text) refers to ddiv.o(x$fpl$ddiv) for __aeabi_ddiv
    ucos_task.o(.text) refers to d2f.o(x$fpl$d2f) for __aeabi_d2f
    ucos_task.o(.text) refers to imu.o(.text) for madgwick_update_new
    ucos_task.o(.text) refers to dmul.o(x$fpl$dmul) for __aeabi_dmul
    ucos_task.o(.text) refers to vmc.o(.text) for DigitalLPF
    ucos_task.o(.text) refers to ucos_task.o(.bss) for leg_dt
    ucos_task.o(.text) refers to iic_vl53.o(.bss) for ls53
    ucos_task.o(.text) refers to vmc.o(.bss) for vmc
    ucos_task.o(.text) refers to ucos_task.o(.data) for cnt_init
    ucos_task.o(.text) refers to mems.o(.bss) for mems
    ucos_task.o(.text) refers to rc_mine.o(.bss) for module
    ucos_task.o(.text) refers to imu.o(.data) for Yaw
    ucos_task.o(.text) refers to imu.o(.bss) for reference_vr
    ucos_task.o(.text) refers to ms5611.o(.text) for MS5611_Update
    ucos_task.o(.text) refers to delay.o(.text) for delay_ms
    ucos_task.o(.text) refers to baro_fushion.o(.text) for baro_fushion
    ucos_task.o(.text) refers to pose_fushion.o(.text) for pose_fushion
    ucos_task.o(.text) refers to dleqf.o(x$fpl$dleqf) for __aeabi_cdcmple
    ucos_task.o(.text) refers to vmc_demo.o(.text) for vmc_init
    ucos_task.o(.text) refers to my_math.o(.text) for my_deathzoom_rc
    ucos_task.o(.text) refers to pose_fushion.o(.bss) for nav
    ucos_task.o(.text) refers to bat.o(.bss) for press_leg_end
    ucos_task.o(.text) refers to usart_fc.o(.bss) for Rc_Get_SBUS
    ucos_task.o(.text) refers to vmc.o(.data) for MAX_SPD
    ucos_task.o(.text) refers to rc_mine.o(.data) for KEY
    ucos_task.o(.text) refers to vmc_sdk.o(.text) for smart_control
    ucos_task.o(.text) refers to watch_dog.o(.text) for IWDG_Init
    ucos_task.o(.text) refers to led_fc.o(.text) for leg_power_control
    ucos_task.o(.text) refers to bat.o(.text) for Bat_protect
    ucos_task.o(.text) refers to pwm_out.o(.text) for Set_DJ_PWM
    ucos_task.o(.text) refers to usart_fc.o(.text) for data_per_uart_rc
    ucos_task.o(.text) refers to dfix.o(x$fpl$dfix) for __aeabi_d2iz
    ucos_task.o(.text) refers to rc_mine.o(.text) for Nrf_Check_Event
    ucos_task.o(.text) refers to ms5611.o(.bss) for ms5611
    ucos_task.o(.text) refers to os_core.o(.data) for OSCPUUsage
    main.o(.text) refers to os_mbox.o(.text) for OSMboxCreate
    main.o(.text) refers to os_q.o(.text) for OSQCreate
    main.o(.text) refers to os_flag.o(.text) for OSFlagCreate
    main.o(.text) refers to os_core.o(.text) for OSStatInit
    main.o(.text) refers to os_tmr.o(.text) for OSTmrCreate
    main.o(.text) refers to os_cpu_a.o(.text) for OS_CPU_SR_Save
    main.o(.text) refers to os_task.o(.text) for OSTaskCreate
    main.o(.text) refers to misc.o(.text) for NVIC_PriorityGroupConfig
    main.o(.text) refers to delay.o(.text) for delay_init
    main.o(.text) refers to time.o(.text) for Initial_Timer_SYS
    main.o(.text) refers to led_fc.o(.text) for POWER_INIT
    main.o(.text) refers to rng.o(.text) for RNG_Init
    main.o(.text) refers to pwm_out.o(.text) for PWM_AUX_Out_Init
    main.o(.text) refers to beep.o(.text) for Beep_Init
    main.o(.text) refers to usart_fc.o(.text) for Usart1_Init
    main.o(.text) refers to spi.o(.text) for SPI2_Init
    main.o(.text) refers to icm20602.o(.text) for LIS3MDL_Init
    main.o(.text) refers to ms5611.o(.text) for MS5611_Init
    main.o(.text) refers to bat.o(.text) for Adc_Init
    main.o(.text) refers to flash_w25.o(.text) for W25QXX_Init
    main.o(.text) refers to flash.o(.text) for READ_PARM
    main.o(.text) refers to nrf.o(.text) for Nrf24l01_Init
    main.o(.text) refers to iic_vl53.o(.text) for I2c_Soft_Init_VL53
    main.o(.text) refers to main.o(.data) for msg_key
    main.o(.text) refers to main.o(.bss) for MsgGrp
    main.o(.text) refers to ucos_task.o(.text) for tmr1_callback
    main.o(.text) refers to ucos_task.o(.data) for tmr1
    main.o(.text) refers to ucos_task.o(.bss) for BRAIN_TASK_STK
    main.o(.text) refers to rc_mine.o(.bss) for module
    stm32f4xx_it.o(.text) refers to stm32f4xx_it.o(.data) for hard_fall
    system_stm32f4xx.o(.text) refers to system_stm32f4xx.o(.data) for SystemCoreClock
    startup_stm32f40_41xxx.o(STACK) refers (Special) to heapauxi.o(.text) for __use_two_region_memory
    startup_stm32f40_41xxx.o(HEAP) refers (Special) to heapauxi.o(.text) for __use_two_region_memory
    startup_stm32f40_41xxx.o(RESET) refers (Special) to heapauxi.o(.text) for __use_two_region_memory
    startup_stm32f40_41xxx.o(RESET) refers to startup_stm32f40_41xxx.o(STACK) for __initial_sp
    startup_stm32f40_41xxx.o(RESET) refers to startup_stm32f40_41xxx.o(.text) for Reset_Handler
    startup_stm32f40_41xxx.o(RESET) refers to stm32f4xx_it.o(.text) for NMI_Handler
    startup_stm32f40_41xxx.o(RESET) refers to os_cpu_a.o(.text) for PendSV_Handler
    startup_stm32f40_41xxx.o(RESET) refers to delay.o(.text) for SysTick_Handler
    startup_stm32f40_41xxx.o(RESET) refers to usart_fc.o(.text) for USART1_IRQHandler
    startup_stm32f40_41xxx.o(.text) refers (Special) to heapauxi.o(.text) for __use_two_region_memory
    startup_stm32f40_41xxx.o(.text) refers to system_stm32f4xx.o(.text) for SystemInit
    startup_stm32f40_41xxx.o(.text) refers to __main.o(!!!main) for __main
    startup_stm32f40_41xxx.o(.text) refers to startup_stm32f40_41xxx.o(HEAP) for Heap_Mem
    startup_stm32f40_41xxx.o(.text) refers to startup_stm32f40_41xxx.o(STACK) for Stack_Mem
    delay.o(.text) refers to os_core.o(.text) for OSIntEnter
    delay.o(.text) refers to misc.o(.text) for SysTick_CLKSourceConfig
    delay.o(.text) refers to os_time.o(.text) for OSTimeDly
    delay.o(.text) refers to delay.o(.data) for fac_us
    delay.o(.text) refers to os_core.o(.data) for OSRunning
    stm32f4xx_gpio.o(.text) refers to stm32f4xx_rcc.o(.text) for RCC_AHB1PeriphResetCmd
    stm32f4xx_fsmc.o(.text) refers to stm32f4xx_fsmc.o(.constdata) for FSMC_DefaultTimingStruct
    stm32f4xx_rcc.o(.text) refers to stm32f4xx_rcc.o(.data) for APBAHBPrescTable
    stm32f4xx_syscfg.o(.text) refers to stm32f4xx_rcc.o(.text) for RCC_APB2PeriphResetCmd
    stm32f4xx_usart.o(.text) refers to stm32f4xx_rcc.o(.text) for RCC_APB2PeriphResetCmd
    stm32f4xx_tim.o(.text) refers to stm32f4xx_rcc.o(.text) for RCC_APB2PeriphResetCmd
    stm32f4xx_pwr.o(.text) refers to stm32f4xx_rcc.o(.text) for RCC_APB1PeriphResetCmd
    stm32f4xx_spi.o(.text) refers to stm32f4xx_rcc.o(.text) for RCC_APB2PeriphResetCmd
    stm32f4xx_rng.o(.text) refers to stm32f4xx_rcc.o(.text) for RCC_AHB2PeriphResetCmd
    stm32f4xx_dac.o(.text) refers to stm32f4xx_rcc.o(.text) for RCC_APB1PeriphResetCmd
    stm32f4xx_adc.o(.text) refers to stm32f4xx_rcc.o(.text) for RCC_APB2PeriphResetCmd
    os_core.o(.text) refers to os_task.o(.text) for OSTaskStkChk
    os_core.o(.text) refers to os_time.o(.text) for OSTimeDly
    os_core.o(.text) refers to os_cpu_a.o(.text) for OS_CPU_SR_Save
    os_core.o(.text) refers to os_cpu_c.o(.text) for OSTaskStatHook
    os_core.o(.text) refers to os_flag.o(.text) for OS_FlagInit
    os_core.o(.text) refers to os_q.o(.text) for OS_QInit
    os_core.o(.text) refers to os_tmr.o(.text) for OSTmr_Init
    os_core.o(.text) refers to os_core.o(.bss) for OSTCBPrioTbl
    os_core.o(.text) refers to os_core.o(.data) for OSStatRdy
    os_core.o(.text) refers to os_core.o(.constdata) for OSUnMapTbl
    os_flag.o(.text) refers to os_cpu_a.o(.text) for OS_CPU_SR_Save
    os_flag.o(.text) refers to os_core.o(.text) for OS_Sched
    os_flag.o(.text) refers to os_core.o(.data) for OSIntNesting
    os_flag.o(.text) refers to os_core.o(.bss) for OSFlagTbl
    os_mbox.o(.text) refers to os_cpu_a.o(.text) for OS_CPU_SR_Save
    os_mbox.o(.text) refers to os_core.o(.text) for OS_EventWaitListInit
    os_mbox.o(.text) refers to os_core.o(.data) for OSIntNesting
    os_mutex.o(.text) refers to os_cpu_a.o(.text) for OS_CPU_SR_Save
    os_mutex.o(.text) refers to os_core.o(.text) for OS_EventWaitListInit
    os_mutex.o(.text) refers to os_core.o(.data) for OSIntNesting
    os_mutex.o(.text) refers to os_core.o(.bss) for OSTCBPrioTbl
    os_q.o(.text) refers to os_cpu_a.o(.text) for OS_CPU_SR_Save
    os_q.o(.text) refers to os_core.o(.text) for OS_EventWaitListInit
    os_q.o(.text) refers to os_core.o(.data) for OSIntNesting
    os_q.o(.text) refers to os_core.o(.bss) for OSQTbl
    os_sem.o(.text) refers to os_cpu_a.o(.text) for OS_CPU_SR_Save
    os_sem.o(.text) refers to os_core.o(.text) for OS_EventWaitListInit
    os_sem.o(.text) refers to os_core.o(.data) for OSIntNesting
    os_task.o(.text) refers to os_cpu_a.o(.text) for OS_CPU_SR_Save
    os_task.o(.text) refers to os_core.o(.text) for OS_Sched
    os_task.o(.text) refers to os_cpu_c.o(.text) for OSTaskStkInit
    os_task.o(.text) refers to os_flag.o(.text) for OS_FlagUnlink
    os_task.o(.text) refers to os_core.o(.bss) for OSTCBPrioTbl
    os_task.o(.text) refers to os_core.o(.data) for OSTCBCur
    os_time.o(.text) refers to os_cpu_a.o(.text) for OS_CPU_SR_Save
    os_time.o(.text) refers to os_core.o(.text) for OS_Sched
    os_time.o(.text) refers to os_core.o(.data) for OSIntNesting
    os_time.o(.text) refers to os_core.o(.bss) for OSTCBPrioTbl
    os_tmr.o(.text) refers to os_core.o(.text) for OSSchedLock
    os_tmr.o(.text) refers to os_core.o(.data) for OSTmrFreeList
    os_tmr.o(.text) refers to os_core.o(.bss) for OSTmrWheelTbl
    os_tmr.o(.text) refers to os_sem.o(.text) for OSSemPost
    os_tmr.o(.text) refers to os_task.o(.text) for OSTaskCreateExt
    os_cpu_a.o(.text) refers to os_core.o(.data) for OSRunning
    os_cpu_a.o(.text) refers to os_cpu_c.o(.text) for OSTaskSwHook
    os_cpu_c.o(.text) refers to os_tmr.o(.text) for OSTmrSignal
    os_cpu_c.o(.text) refers to os_cpu_c.o(.data) for OSTmrCtr
    os_cpu_c.o(.text) refers to os_task.o(.text) for OS_TaskReturn
    spi.o(.text) refers to stm32f4xx_gpio.o(.text) for GPIO_SetBits
    spi.o(.text) refers to delay.o(.text) for delay_us
    spi.o(.text) refers to stm32f4xx_rcc.o(.text) for RCC_AHB1PeriphClockCmd
    spi.o(.text) refers to stm32f4xx_spi.o(.text) for SPI_Init
    flash.o(.text) refers to stm32f4xx_flash.o(.text) for FLASH_Unlock
    flash.o(.text) refers to rt_memclr_w.o(.text) for __aeabi_memclr4
    flash.o(.text) refers to flash_w25.o(.text) for W25QXX_Read
    flash.o(.text) refers to f2d.o(x$fpl$f2d) for __aeabi_f2d
    flash.o(.text) refers to ddiv.o(x$fpl$ddiv) for __aeabi_ddiv
    flash.o(.text) refers to d2f.o(x$fpl$d2f) for __aeabi_d2f
    flash.o(.text) refers to fabs.o(i.__hardfp_fabs) for __hardfp_fabs
    flash.o(.text) refers to dleqf.o(x$fpl$dleqf) for __aeabi_cdcmple
    flash.o(.text) refers to flash.o(.data) for FLASH_SIZE
    flash.o(.text) refers to mems.o(.bss) for mems
    flash.o(.text) refers to vmc.o(.bss) for vmc
    flash.o(.text) refers to main.o(.data) for CHE
    led_fc.o(.text) refers to stm32f4xx_gpio.o(.text) for GPIO_ResetBits
    led_fc.o(.text) refers to stm32f4xx_rcc.o(.text) for RCC_AHB1PeriphClockCmd
    led_fc.o(.text) refers to time.o(.text) for Delay_ms
    led_fc.o(.text) refers to beep.o(.text) for Play_Music_Task
    led_fc.o(.text) refers to led_fc.o(.data) for LED
    led_fc.o(.text) refers to mems.o(.bss) for mems
    led_fc.o(.text) refers to vmc.o(.bss) for vmc_all
    led_fc.o(.text) refers to rc_mine.o(.data) for KEY
    led_fc.o(.text) refers to led_fc.o(.bss) for cnt_dj_cal
    led_fc.o(.text) refers to f2d.o(x$fpl$f2d) for __aeabi_f2d
    led_fc.o(.text) refers to drleqf.o(x$fpl$drleqf) for __aeabi_cdrcmple
    led_fc.o(.text) refers to my_math.o(.text) for my_deathzoom
    led_fc.o(.text) refers to ddiv.o(x$fpl$ddiv) for __aeabi_ddiv
    led_fc.o(.text) refers to dflt_clz.o(x$fpl$dfltu) for __aeabi_ui2d
    led_fc.o(.text) refers to daddsub_clz.o(x$fpl$dadd) for __aeabi_dadd
    led_fc.o(.text) refers to dfixu.o(x$fpl$dfixu) for __aeabi_d2uiz
    led_fc.o(.text) refers to rc_mine.o(.bss) for Rc_Get
    led_fc.o(.text) refers to vmc_demo.o(.data) for force_dj_off_reset
    led_fc.o(.text) refers to usart_fc.o(.bss) for Rc_Get_SBUS
    led_fc.o(.text) refers to beep.o(.data) for fc_state_beep
    led_fc.o(.text) refers to bat.o(.bss) for bat
    led_fc.o(.text) refers to vmc_sdk.o(.data) for mission_flag
    pwm_out.o(.text) refers to stm32f4xx_tim.o(.text) for TIM_TimeBaseStructInit
    pwm_out.o(.text) refers to stm32f4xx_rcc.o(.text) for RCC_APB1PeriphClockCmd
    pwm_out.o(.text) refers to stm32f4xx_gpio.o(.text) for GPIO_Init
    pwm_out.o(.text) refers to vmc.o(.bss) for vmc
    pwm_out.o(.text) refers to pwm_out.o(.data) for dj_out
    pwm_out.o(.text) refers to system_stm32f4xx.o(.data) for SystemCoreClock
    time.o(.text) refers to stm32f4xx_rcc.o(.text) for RCC_GetClocksFreq
    time.o(.text) refers to misc.o(.text) for SysTick_CLKSourceConfig
    time.o(.text) refers to delay.o(.text) for delay_us
    time.o(.text) refers to time.o(.bss) for Cycle_T
    dma.o(.text) refers to stm32f4xx_rcc.o(.text) for RCC_AHB1PeriphClockCmd
    dma.o(.text) refers to stm32f4xx_dma.o(.text) for DMA_DeInit
    rng.o(.text) refers to stm32f4xx_rcc.o(.text) for RCC_AHB2PeriphClockCmd
    rng.o(.text) refers to stm32f4xx_rng.o(.text) for RNG_Cmd
    rng.o(.text) refers to delay.o(.text) for delay_us
    bat.o(.text) refers to stm32f4xx_rcc.o(.text) for RCC_AHB1PeriphClockCmd
    bat.o(.text) refers to stm32f4xx_gpio.o(.text) for GPIO_Init
    bat.o(.text) refers to stm32f4xx_adc.o(.text) for ADC_CommonInit
    bat.o(.text) refers to stm32f4xx_dma.o(.text) for DMA_DeInit
    bat.o(.text) refers to vmc.o(.text) for DigitalLPF
    bat.o(.text) refers to bat.o(.bss) for ADC_Value
    bat.o(.text) refers to bat.o(.data) for k_ad
    bat.o(.text) refers to vmc.o(.bss) for vmc
    bat.o(.text) refers to my_math.o(.text) for OLDX_SMOOTH_IN_ESOX
    bat.o(.text) refers to time.o(.text) for Delay_ms
    bat.o(.text) refers to f2d.o(x$fpl$f2d) for __aeabi_f2d
    bat.o(.text) refers to drleqf.o(x$fpl$drleqf) for __aeabi_cdrcmple
    bat.o(.text) refers to dleqf.o(x$fpl$dleqf) for __aeabi_cdcmple
    bat.o(.text) refers to dflt_clz.o(x$fpl$dfltu) for __aeabi_ui2d
    bat.o(.text) refers to dmul.o(x$fpl$dmul) for __aeabi_dmul
    bat.o(.text) refers to d2f.o(x$fpl$d2f) for __aeabi_d2f
    bat.o(.text) refers to daddsub_clz.o(x$fpl$dsub) for __aeabi_dsub
    bat.o(.text) refers to ddiv.o(x$fpl$ddiv) for __aeabi_ddiv
    beep.o(.text) refers to stm32f4xx_tim.o(.text) for TIM_TimeBaseInit
    beep.o(.text) refers to delay.o(.text) for delay_ms
    beep.o(.text) refers to f2d.o(x$fpl$f2d) for __aeabi_f2d
    beep.o(.text) refers to dflt_clz.o(x$fpl$dflt) for __aeabi_i2d
    beep.o(.text) refers to ddiv.o(x$fpl$ddiv) for __aeabi_ddiv
    beep.o(.text) refers to dflt_clz.o(x$fpl$dfltu) for __aeabi_ui2d
    beep.o(.text) refers to drleqf.o(x$fpl$drleqf) for __aeabi_cdrcmple
    beep.o(.text) refers to beep.o(.data) for tone_table
    beep.o(.text) refers to led_fc.o(.data) for dj_sel
    beep.o(.text) refers to stm32f4xx_rcc.o(.text) for RCC_APB1PeriphClockCmd
    beep.o(.text) refers to stm32f4xx_gpio.o(.text) for GPIO_PinAFConfig
    watch_dog.o(.text) refers to stm32f4xx_iwdg.o(.text) for IWDG_WriteAccessCmd
    nrf.o(.text) refers to spi.o(.text) for SPI_CS
    nrf.o(.text) refers to stm32f4xx_gpio.o(.text) for GPIO_ResetBits
    nrf.o(.text) refers to nrf.o(.data) for TX_ADDRESS
    nrf.o(.text) refers to rc_mine.o(.bss) for module
    pressure.o(.text) refers to stm32f4xx_rcc.o(.text) for RCC_AHB1PeriphClockCmd
    pressure.o(.text) refers to stm32f4xx_gpio.o(.text) for GPIO_Init
    pressure.o(.text) refers to delay.o(.text) for delay_us
    pressure.o(.text) refers to dflt_clz.o(x$fpl$dfltu) for __aeabi_ui2d
    pressure.o(.text) refers to ddiv.o(x$fpl$ddiv) for __aeabi_ddiv
    pressure.o(.text) refers to dfix.o(x$fpl$dfix) for __aeabi_d2iz
    pressure.o(.text) refers to dflt_clz.o(x$fpl$dflt) for __aeabi_i2d
    pressure.o(.text) refers to dmul.o(x$fpl$dmul) for __aeabi_dmul
    pressure.o(.text) refers to pressure.o(.data) for Pres1
    flash_w25.o(.text) refers to spi.o(.text) for SPI_CS
    flash_w25.o(.text) refers to time.o(.text) for Delay_us
    flash_w25.o(.text) refers to flash_w25.o(.data) for W25QXX_TYPE
    flash_w25.o(.text) refers to rc_mine.o(.bss) for module
    flash_w25.o(.text) refers to flash_w25.o(.bss) for W25QXX_BUFFER
    iic_vl53.o(.text) refers to stm32f4xx_rcc.o(.text) for RCC_AHB1PeriphClockCmd
    iic_vl53.o(.text) refers to stm32f4xx_gpio.o(.text) for GPIO_Init
    iic_vl53.o(.text) refers to iic_vl53.o(.data) for I2C_FastMode_VL53
    iic_vl53.o(.text) refers to bat.o(.data) for ground_vad
    iic_vl53.o(.text) refers to iic_vl53.o(.bss) for ls53
    vl6180x_i2c.o(.text) refers to iic_vl53.o(.text) for IIC_Write_1Byte_VL53
    vl6180x_i2c.o(.text) refers to vl6180x_i2c.o(.data) for sel_iic
    vl6180x_i2c.o(.text) refers to iic_vl53.o(.bss) for ls53
    usart_fc.o(.text) refers to stm32f4xx_rcc.o(.text) for RCC_APB2PeriphClockCmd
    usart_fc.o(.text) refers to misc.o(.text) for NVIC_Init
    usart_fc.o(.text) refers to stm32f4xx_gpio.o(.text) for GPIO_PinAFConfig
    usart_fc.o(.text) refers to stm32f4xx_usart.o(.text) for USART_Init
    usart_fc.o(.text) refers to f2d.o(x$fpl$f2d) for __aeabi_f2d
    usart_fc.o(.text) refers to ddiv.o(x$fpl$ddiv) for __aeabi_ddiv
    usart_fc.o(.text) refers to d2f.o(x$fpl$d2f) for __aeabi_d2f
    usart_fc.o(.text) refers to usart_fc.o(.bss) for pi
    usart_fc.o(.text) refers to vmc.o(.bss) for vmc_all
    usart_fc.o(.text) refers to vmc.o(.data) for MAX_SPD
    usart_fc.o(.text) refers to os_core.o(.text) for OSIntEnter
    usart_fc.o(.text) refers to usart_fc.o(.data) for RxState1
    usart_fc.o(.text) refers to sbus.o(.text) for oldx_sbus_rx
    usart_fc.o(.text) refers to sbus.o(.data) for channels
    usart_fc.o(.text) refers to flash.o(.data) for SBUS_MAX
    rc_mine.o(.text) refers to nrf.o(.bss) for NRF24L01_RXDATA
    rc_mine.o(.text) refers to rc_mine.o(.bss) for module
    rc_mine.o(.text) refers to rc_mine.o(.data) for data_rate
    rc_mine.o(.text) refers to nrf.o(.text) for NRF_Read_Reg
    rc_mine.o(.text) refers to vmc.o(.bss) for vmc_all
    rc_mine.o(.text) refers to pose_fushion.o(.bss) for nav
    rc_mine.o(.text) refers to vmc_sdk.o(.data) for mission_state
    rc_mine.o(.text) refers to my_math.o(.bss) for traj
    rc_mine.o(.text) refers to imu.o(.data) for fly_ready
    rc_mine.o(.text) refers to bat.o(.bss) for bat
    rc_mine.o(.text) refers to usart_fc.o(.bss) for BLE_DEBUG
    mems.o(.text) refers to icm20602.o(.text) for LSM6_readAcc
    mems.o(.text) refers to flash.o(.text) for WRITE_PARM
    mems.o(.text) refers to cycle_cal_oldx.o(.text) for cycle_init_oldx
    mems.o(.text) refers to f2d.o(x$fpl$f2d) for __aeabi_f2d
    mems.o(.text) refers to fabs.o(i.__hardfp_fabs) for __hardfp_fabs
    mems.o(.text) refers to drleqf.o(x$fpl$drleqf) for __aeabi_cdrcmple
    mems.o(.text) refers to ddiv.o(x$fpl$ddiv) for __aeabi_ddiv
    mems.o(.text) refers to d2f.o(x$fpl$d2f) for __aeabi_d2f
    mems.o(.text) refers to mems.o(.data) for cnt
    mems.o(.text) refers to mems.o(.bss) for mems
    mems.o(.text) refers to imu.o(.data) for Pitch
    mems.o(.text) refers to vmc.o(.bss) for vmc_all
    mems.o(.text) refers to rc_mine.o(.bss) for module
    mems.o(.text) refers to cycle_cal_oldx.o(.bss) for hml_lsq
    mems.o(.text) refers to sqrt.o(i.__hardfp_sqrt) for __hardfp_sqrt
    mems.o(.text) refers to rt_memclr_w.o(.text) for __aeabi_memclr4
    mems.o(.text) refers to icm20602.o(.bss) for lis3mdl
    mems.o(.text) refers to fliter.o(.text) for Low_Fass_Filter
    icm20602.o(.text) refers to spi.o(.text) for SPI_CS
    icm20602.o(.text) refers to time.o(.text) for Delay_ms
    icm20602.o(.text) refers to icm20602.o(.bss) for lis3mdl
    icm20602.o(.text) refers to icm20602.o(.data) for id
    icm20602.o(.text) refers to rc_mine.o(.bss) for module
    imu.o(.text) refers to f2d.o(x$fpl$f2d) for __aeabi_f2d
    imu.o(.text) refers to ddiv.o(x$fpl$ddiv) for __aeabi_ddiv
    imu.o(.text) refers to d2f.o(x$fpl$d2f) for __aeabi_d2f
    imu.o(.text) refers to fabs.o(i.__hardfp_fabs) for __hardfp_fabs
    imu.o(.text) refers to sqrt.o(i.__hardfp_sqrt) for __hardfp_sqrt
    imu.o(.text) refers to dmul.o(x$fpl$dmul) for __aeabi_dmul
    imu.o(.text) refers to daddsub_clz.o(x$fpl$drsb) for __aeabi_drsub
    imu.o(.text) refers to drleqf.o(x$fpl$drleqf) for __aeabi_cdrcmple
    imu.o(.text) refers to dleqf.o(x$fpl$dleqf) for __aeabi_cdcmple
    imu.o(.text) refers to atan2.o(i.__hardfp_atan2) for __hardfp_atan2
    imu.o(.text) refers to imu.o(.data) for accMagP
    imu.o(.text) refers to mems.o(.bss) for mems
    imu.o(.text) refers to cosf.o(i.__hardfp_cosf) for __hardfp_cosf
    imu.o(.text) refers to sinf.o(i.__hardfp_sinf) for __hardfp_sinf
    imu.o(.text) refers to atan2f.o(i.__hardfp_atan2f) for __hardfp_atan2f
    imu.o(.text) refers to my_math.o(.text) for fast_atan2
    imu.o(.text) refers to asin.o(i.__hardfp_asin) for __hardfp_asin
    imu.o(.text) refers to imu.o(.bss) for reference_vr
    imu.o(.text) refers to fliter.o(.text) for Low_Fass_Filter
    imu.o(.text) refers to cos.o(i.__hardfp_cos) for __hardfp_cos
    imu.o(.text) refers to sin.o(i.__hardfp_sin) for __hardfp_sin
    imu.o(.text) refers to dflt_clz.o(x$fpl$dflt) for __aeabi_i2d
    imu.o(.text) refers to daddsub_clz.o(x$fpl$dadd) for __aeabi_dadd
    ms5611.o(.text) refers to stm32f4xx_spi.o(.text) for SPI_I2S_GetFlagStatus
    ms5611.o(.text) refers to spi.o(.text) for SPI_CS
    ms5611.o(.text) refers to f2d.o(x$fpl$f2d) for __aeabi_f2d
    ms5611.o(.text) refers to pow.o(i.__hardfp_pow) for __hardfp_pow
    ms5611.o(.text) refers to ms5611.o(.bss) for input
    ms5611.o(.text) refers to ms5611.o(.constdata) for b_baro_pressure
    ms5611.o(.text) refers to rc_mine.o(.bss) for module
    ms5611.o(.text) refers to daddsub_clz.o(x$fpl$drsb) for __aeabi_drsub
    ms5611.o(.text) refers to dmul.o(x$fpl$dmul) for __aeabi_dmul
    ms5611.o(.text) refers to dfix.o(x$fpl$dfix) for __aeabi_d2iz
    ms5611.o(.text) refers to drleqf.o(x$fpl$drleqf) for __aeabi_cdrcmple
    ms5611.o(.text) refers to dflt_clz.o(x$fpl$dflt) for __aeabi_i2d
    ms5611.o(.text) refers to ms5611.o(.data) for state
    vmc_demo.o(.text) refers to vmc.o(.text) for sind
    vmc_demo.o(.text) refers to f2d.o(x$fpl$f2d) for __aeabi_f2d
    vmc_demo.o(.text) refers to pow.o(i.__hardfp_pow) for __hardfp_pow
    vmc_demo.o(.text) refers to dmul.o(x$fpl$dmul) for __aeabi_dmul
    vmc_demo.o(.text) refers to daddsub_clz.o(x$fpl$dsub) for __aeabi_dsub
    vmc_demo.o(.text) refers to sqrt.o(i.__hardfp_sqrt) for __hardfp_sqrt
    vmc_demo.o(.text) refers to daddsub_clz.o(x$fpl$dadd) for __aeabi_dadd
    vmc_demo.o(.text) refers to d2f.o(x$fpl$d2f) for __aeabi_d2f
    vmc_demo.o(.text) refers to ddiv.o(x$fpl$ddiv) for __aeabi_ddiv
    vmc_demo.o(.text) refers to vmc.o(.bss) for vmc_all
    vmc_demo.o(.text) refers to vmc.o(.data) for MIN_Z
    vmc_demo.o(.text) refers to vmc_demo.o(.bss) for pid_force
    vmc_demo.o(.text) refers to dleqf.o(x$fpl$dleqf) for __aeabi_cdcmple
    vmc_demo.o(.text) refers to drleqf.o(x$fpl$drleqf) for __aeabi_cdrcmple
    vmc_demo.o(.text) refers to vmc_demo.o(.data) for force_dj_off_reset
    vmc_demo.o(.text) refers to fabs.o(i.__hardfp_fabs) for __hardfp_fabs
    vmc_demo.o(.text) refers to my_math.o(.text) for fast_atan2
    vmc_demo.o(.text) refers to tan.o(i.__hardfp_tan) for __hardfp_tan
    vmc_demo.o(.text) refers to sin.o(i.__hardfp_sin) for __hardfp_sin
    vmc_demo.o(.text) refers to cos.o(i.__hardfp_cos) for __hardfp_cos
    vmc_demo.o(.text) refers to daddsub_clz.o(x$fpl$drsb) for __aeabi_drsub
    vmc_demo.o(.text) refers to basic.o(x$fpl$basic) for __aeabi_dneg
    vmc_demo.o(.text) refers to acos.o(i.__hardfp_acos) for __hardfp_acos
    vmc_demo.o(.text) refers to dflt_clz.o(x$fpl$dfltu) for __aeabi_ui2d
    vmc_sdk.o(.text) refers to my_math.o(.text) for get_tra
    vmc_sdk.o(.text) refers to f2d.o(x$fpl$f2d) for __aeabi_f2d
    vmc_sdk.o(.text) refers to dmul.o(x$fpl$dmul) for __aeabi_dmul
    vmc_sdk.o(.text) refers to d2f.o(x$fpl$d2f) for __aeabi_d2f
    vmc_sdk.o(.text) refers to vmc.o(.text) for cosd
    vmc_sdk.o(.text) refers to ddiv.o(x$fpl$ddiv) for __aeabi_ddiv
    vmc_sdk.o(.text) refers to dleqf.o(x$fpl$dleqf) for __aeabi_cdcmple
    vmc_sdk.o(.text) refers to drleqf.o(x$fpl$drleqf) for __aeabi_cdrcmple
    vmc_sdk.o(.text) refers to my_math.o(.bss) for traj
    vmc_sdk.o(.text) refers to vmc.o(.bss) for vmc_all
    vmc_sdk.o(.text) refers to vmc.o(.data) for MAX_SPD
    vmc_sdk.o(.text) refers to vmc_sdk.o(.bss) for flag_sdk
    vmc_sdk.o(.text) refers to vmc_sdk.o(.data) for k_traj
    vmc_sdk.o(.text) refers to pose_fushion.o(.bss) for nav
    vmc_sdk.o(.text) refers to fliter.o(.text) for Low_Fass_Filter
    vmc_sdk.o(.text) refers to usart_fc.o(.bss) for pi
    eso.o(.text) refers to f2d.o(x$fpl$f2d) for __aeabi_f2d
    eso.o(.text) refers to fabs.o(i.__hardfp_fabs) for __hardfp_fabs
    eso.o(.text) refers to dmul.o(x$fpl$dmul) for __aeabi_dmul
    eso.o(.text) refers to daddsub_clz.o(x$fpl$dadd) for __aeabi_dadd
    eso.o(.text) refers to d2f.o(x$fpl$d2f) for __aeabi_d2f
    eso.o(.text) refers to drleqf.o(x$fpl$drleqf) for __aeabi_cdrcmple
    eso.o(.text) refers to pow.o(i.__hardfp_pow) for __hardfp_pow
    eso.o(.text) refers to daddsub_clz.o(x$fpl$drsb) for __aeabi_drsub
    eso.o(.text) refers to ddiv.o(x$fpl$ddiv) for __aeabi_ddiv
    eso.o(.text) refers to eso.o(.data) for Thr_tmp
    eso.o(.text) refers to dleqf.o(x$fpl$dleqf) for __aeabi_cdcmple
    fliter.o(.text) refers to f2d.o(x$fpl$f2d) for __aeabi_f2d
    fliter.o(.text) refers to dmul.o(x$fpl$dmul) for __aeabi_dmul
    fliter.o(.text) refers to ddiv.o(x$fpl$ddiv) for __aeabi_ddiv
    fliter.o(.text) refers to d2f.o(x$fpl$d2f) for __aeabi_d2f
    fliter.o(.text) refers to my_math.o(.text) for my_pow
    fliter.o(.text) refers to fliter.o(.bss) for med_fil_cnt
    fliter.o(.text) refers to fliter.o(.data) for h_tmp_x
    my_math.o(.text) refers to f2d.o(x$fpl$f2d) for __aeabi_f2d
    my_math.o(.text) refers to dmul.o(x$fpl$dmul) for __aeabi_dmul
    my_math.o(.text) refers to daddsub_clz.o(x$fpl$dadd) for __aeabi_dadd
    my_math.o(.text) refers to d2f.o(x$fpl$d2f) for __aeabi_d2f
    my_math.o(.text) refers to dleqf.o(x$fpl$dleqf) for __aeabi_cdcmple
    my_math.o(.text) refers to daddsub_clz.o(x$fpl$drsb) for __aeabi_drsub
    my_math.o(.text) refers to daddsub_clz.o(x$fpl$dsub) for __aeabi_dsub
    my_math.o(.text) refers to drleqf.o(x$fpl$drleqf) for __aeabi_cdrcmple
    my_math.o(.text) refers to dflt_clz.o(x$fpl$dflt) for __aeabi_i2d
    my_math.o(.text) refers to my_math.o(.data) for fast_atan_table
    my_math.o(.text) refers to ddiv.o(x$fpl$ddiv) for __aeabi_ddiv
    pose_fushion.o(.text) refers to rt_memcpy_w.o(.text) for __aeabi_memcpy4
    pose_fushion.o(.text) refers to deqf.o(x$fpl$deqf) for __aeabi_cdcmpeq
    pose_fushion.o(.text) refers to f2d.o(x$fpl$f2d) for __aeabi_f2d
    pose_fushion.o(.text) refers to ddiv.o(x$fpl$ddiv) for __aeabi_ddiv
    pose_fushion.o(.text) refers to d2f.o(x$fpl$d2f) for __aeabi_d2f
    pose_fushion.o(.text) refers to my_math.o(.text) for To_180_degrees
    pose_fushion.o(.text) refers to vmc.o(.text) for sind
    pose_fushion.o(.text) refers to pose_kf.o(.text) for pose_kf
    pose_fushion.o(.text) refers to dmul.o(x$fpl$dmul) for __aeabi_dmul
    pose_fushion.o(.text) refers to basic.o(x$fpl$basic) for __aeabi_dneg
    pose_fushion.o(.text) refers to daddsub_clz.o(x$fpl$dadd) for __aeabi_dadd
    pose_fushion.o(.text) refers to pose_fushion.o(.constdata) for .constdata
    pose_fushion.o(.text) refers to pose_fushion.o(.bss) for nav
    pose_fushion.o(.text) refers to vmc.o(.bss) for vmc_all
    pose_fushion.o(.text) refers to pose_fushion.o(.data) for k_fack_yaw
    baro_fushion.o(.text) refers to f2d.o(x$fpl$f2d) for __aeabi_f2d
    baro_fushion.o(.text) refers to ddiv.o(x$fpl$ddiv) for __aeabi_ddiv
    baro_fushion.o(.text) refers to d2f.o(x$fpl$d2f) for __aeabi_d2f
    baro_fushion.o(.text) refers to vmc.o(.text) for DigitalLPF
    baro_fushion.o(.text) refers to dflt_clz.o(x$fpl$dfltu) for __aeabi_ui2d
    baro_fushion.o(.text) refers to baro_kf.o(.text) for baro_kf
    baro_fushion.o(.text) refers to baro_fushion.o(.data) for init
    baro_fushion.o(.text) refers to ms5611.o(.bss) for ms5611
    baro_fushion.o(.text) refers to vmc.o(.bss) for vmc_all
    baro_fushion.o(.text) refers to baro_fushion.o(.bss) for X_f32
    baro_fushion.o(.text) refers to pose_fushion.o(.bss) for nav
    pose_kf.o(.text) refers to rt_memclr_w.o(.text) for __aeabi_memclr4
    pose_kf.o(.text) refers to dmul.o(x$fpl$dmul) for __aeabi_dmul
    pose_kf.o(.text) refers to daddsub_clz.o(x$fpl$dadd) for __aeabi_dadd
    pose_kf.o(.text) refers to dflt_clz.o(x$fpl$dflt) for __aeabi_i2d
    pose_kf.o(.text) refers to pose_kf.o(.constdata) for iv0
    pose_kf.o(.text) refers to rt_memcpy_w.o(.text) for __aeabi_memcpy4
    pose_kf.o(.text) refers to fabs.o(i.__hardfp_fabs) for __hardfp_fabs
    pose_kf.o(.text) refers to drleqf.o(x$fpl$drleqf) for __aeabi_cdrcmple
    pose_kf.o(.text) refers to ddiv.o(x$fpl$ddiv) for __aeabi_ddiv
    pose_kf.o(.text) refers to daddsub_clz.o(x$fpl$drsb) for __aeabi_drsub
    pose_kf.o(.text) refers to daddsub_clz.o(x$fpl$dsub) for __aeabi_dsub
    pose_kf.o(.text) refers to basic.o(x$fpl$basic) for __aeabi_dneg
    pose_kf.o(.text) refers to rt_nonfinite.o(.text) for rt_InitInfAndNaN
    baro_kf.o(.text) refers to dmul.o(x$fpl$dmul) for __aeabi_dmul
    baro_kf.o(.text) refers to dflt_clz.o(x$fpl$dflt) for __aeabi_i2d
    baro_kf.o(.text) refers to rt_memclr_w.o(.text) for __aeabi_memclr4
    baro_kf.o(.text) refers to daddsub_clz.o(x$fpl$dadd) for __aeabi_dadd
    baro_kf.o(.text) refers to baro_kf.o(.constdata) for iv0
    baro_kf.o(.text) refers to baro_kf.o(.bss) for pos_buf
    baro_kf.o(.text) refers to fabs.o(i.__hardfp_fabs) for __hardfp_fabs
    baro_kf.o(.text) refers to drleqf.o(x$fpl$drleqf) for __aeabi_cdrcmple
    baro_kf.o(.text) refers to ddiv.o(x$fpl$ddiv) for __aeabi_ddiv
    baro_kf.o(.text) refers to daddsub_clz.o(x$fpl$drsb) for __aeabi_drsub
    baro_kf.o(.text) refers to d2f.o(x$fpl$d2f) for __aeabi_d2f
    baro_kf.o(.text) refers to f2d.o(x$fpl$f2d) for __aeabi_f2d
    baro_kf.o(.text) refers to daddsub_clz.o(x$fpl$dsub) for __aeabi_dsub
    baro_kf.o(.text) refers to rt_nonfinite.o(.text) for rt_InitInfAndNaN
    baro_kf.o(.text) refers to baro_kf.o(.data) for delay_sel
    rt_nonfinite.o(.text) refers to rtgetnan.o(.text) for rtGetNaN
    rt_nonfinite.o(.text) refers to rtgetinf.o(.text) for rtGetInf
    rt_nonfinite.o(.text) refers to deqf.o(x$fpl$deqf) for __aeabi_cdcmpeq
    rt_nonfinite.o(.text) refers to rt_nonfinite.o(.data) for rtNaN
    rtgetinf.o(.text) refers to f2d.o(x$fpl$f2d) for __aeabi_f2d
    rtgetnan.o(.text) refers to f2d.o(x$fpl$f2d) for __aeabi_f2d
    sbus.o(.text) refers to sbus.o(.data) for sbus_data
    cycle_cal_oldx.o(.text) refers to f2d.o(x$fpl$f2d) for __aeabi_f2d
    cycle_cal_oldx.o(.text) refers to sqrt.o(i.__hardfp_sqrt) for __hardfp_sqrt
    cycle_cal_oldx.o(.text) refers to d2f.o(x$fpl$d2f) for __aeabi_d2f
    cycle_cal_oldx.o(.text) refers to fabs.o(i.__hardfp_fabs) for __hardfp_fabs
    vmc.o(.text) refers to f2d.o(x$fpl$f2d) for __aeabi_f2d
    vmc.o(.text) refers to dmul.o(x$fpl$dmul) for __aeabi_dmul
    vmc.o(.text) refers to ddiv.o(x$fpl$ddiv) for __aeabi_ddiv
    vmc.o(.text) refers to d2f.o(x$fpl$d2f) for __aeabi_d2f
    vmc.o(.text) refers to vmc.o(.data) for iid_off
    vmc.o(.text) refers to vmc.o(.bss) for vmc_all
    vmc.o(.text) refers to cos.o(i.__hardfp_cos) for __hardfp_cos
    vmc.o(.text) refers to sin.o(i.__hardfp_sin) for __hardfp_sin
    vmc.o(.text) refers to atan.o(i.__hardfp_atan) for __hardfp_atan
    vmc.o(.text) refers to daddsub_clz.o(x$fpl$dadd) for __aeabi_dadd
    vmc.o(.text) refers to fabs.o(i.__hardfp_fabs) for __hardfp_fabs
    vmc.o(.text) refers to dleqf.o(x$fpl$dleqf) for __aeabi_cdcmple
    vmc.o(.text) refers to drleqf.o(x$fpl$drleqf) for __aeabi_cdrcmple
    vmc.o(.text) refers to my_math.o(.text) for fast_atan2
    vmc.o(.text) refers to daddsub_clz.o(x$fpl$dsub) for __aeabi_dsub
    vmc.o(.text) refers to basic.o(x$fpl$basic) for __aeabi_dneg
    vmc.o(.text) refers to acos.o(i.__hardfp_acos) for __hardfp_acos
    vmc.o(.text) refers to pow.o(i.__hardfp_pow) for __hardfp_pow
    vmc.o(.text) refers to vmc_demo.o(.data) for force_dj_off_reset
    vmc.o(.text) refers to tan.o(i.__hardfp_tan) for __hardfp_tan
    vmc.o(.text) refers to dflt_clz.o(x$fpl$dflt) for __aeabi_i2d
    vmc.o(.text) refers to daddsub_clz.o(x$fpl$drsb) for __aeabi_drsub
    vmc.o(.text) refers to sqrt.o(i.__hardfp_sqrt) for __hardfp_sqrt
    __main.o(!!!main) refers to __rtentry.o(.ARM.Collect$$rtentry$$00000000) for __rt_entry
    basic.o(x$fpl$basic) refers (Special) to usenofp.o(x$fpl$usenofp) for __I$use$fp
    d2f.o(x$fpl$d2f) refers (Special) to usenofp.o(x$fpl$usenofp) for __I$use$fp
    d2f.o(x$fpl$d2f) refers to fretinf.o(x$fpl$fretinf) for __fpl_fretinf
    d2f.o(x$fpl$d2f) refers to dnaninf.o(x$fpl$dnaninf) for __fpl_dnaninf
    daddsub_clz.o(x$fpl$dadd) refers (Special) to usenofp.o(x$fpl$usenofp) for __I$use$fp
    daddsub_clz.o(x$fpl$dadd) refers to daddsub_clz.o(x$fpl$dsub) for _dsub1
    daddsub_clz.o(x$fpl$dadd) refers to dretinf.o(x$fpl$dretinf) for __fpl_dretinf
    daddsub_clz.o(x$fpl$dadd) refers to dnaninf.o(x$fpl$dnaninf) for __fpl_dnaninf
    daddsub_clz.o(x$fpl$drsb) refers (Special) to usenofp.o(x$fpl$usenofp) for __I$use$fp
    daddsub_clz.o(x$fpl$drsb) refers to daddsub_clz.o(x$fpl$dadd) for _dadd1
    daddsub_clz.o(x$fpl$drsb) refers to daddsub_clz.o(x$fpl$dsub) for _dsub1
    daddsub_clz.o(x$fpl$dsub) refers (Special) to usenofp.o(x$fpl$usenofp) for __I$use$fp
    daddsub_clz.o(x$fpl$dsub) refers to daddsub_clz.o(x$fpl$dadd) for _dadd1
    daddsub_clz.o(x$fpl$dsub) refers to dnaninf.o(x$fpl$dnaninf) for __fpl_dnaninf
    ddiv.o(x$fpl$drdiv) refers (Special) to usenofp.o(x$fpl$usenofp) for __I$use$fp
    ddiv.o(x$fpl$drdiv) refers to ddiv.o(x$fpl$ddiv) for ddiv_entry
    ddiv.o(x$fpl$ddiv) refers (Special) to usenofp.o(x$fpl$usenofp) for __I$use$fp
    ddiv.o(x$fpl$ddiv) refers to dretinf.o(x$fpl$dretinf) for __fpl_dretinf
    ddiv.o(x$fpl$ddiv) refers to dnaninf.o(x$fpl$dnaninf) for __fpl_dnaninf
    deqf.o(x$fpl$deqf) refers (Special) to usenofp.o(x$fpl$usenofp) for __I$use$fp
    deqf.o(x$fpl$deqf) refers to dnaninf.o(x$fpl$dnaninf) for __fpl_dnaninf
    deqf.o(x$fpl$deqf) refers to dcmpi.o(x$fpl$dcmpinf) for __fpl_dcmp_Inf
    dfix.o(x$fpl$dfix) refers (Special) to usenofp.o(x$fpl$usenofp) for __I$use$fp
    dfix.o(x$fpl$dfix) refers to dnaninf.o(x$fpl$dnaninf) for __fpl_dnaninf
    dfix.o(x$fpl$dfixr) refers (Special) to usenofp.o(x$fpl$usenofp) for __I$use$fp
    dfix.o(x$fpl$dfixr) refers to dnaninf.o(x$fpl$dnaninf) for __fpl_dnaninf
    dfixu.o(x$fpl$dfixu) refers (Special) to usenofp.o(x$fpl$usenofp) for __I$use$fp
    dfixu.o(x$fpl$dfixu) refers to dnaninf.o(x$fpl$dnaninf) for __fpl_dnaninf
    dfixu.o(x$fpl$dfixur) refers (Special) to usenofp.o(x$fpl$usenofp) for __I$use$fp
    dfixu.o(x$fpl$dfixur) refers to dnaninf.o(x$fpl$dnaninf) for __fpl_dnaninf
    dflt_clz.o(x$fpl$dfltu) refers (Special) to usenofp.o(x$fpl$usenofp) for __I$use$fp
    dflt_clz.o(x$fpl$dflt) refers (Special) to usenofp.o(x$fpl$usenofp) for __I$use$fp
    dflt_clz.o(x$fpl$dfltn) refers (Special) to usenofp.o(x$fpl$usenofp) for __I$use$fp
    dleqf.o(x$fpl$dleqf) refers (Special) to usenofp.o(x$fpl$usenofp) for __I$use$fp
    dleqf.o(x$fpl$dleqf) refers to dnaninf.o(x$fpl$dnaninf) for __fpl_dnaninf
    dleqf.o(x$fpl$dleqf) refers to dcmpi.o(x$fpl$dcmpinf) for __fpl_dcmp_Inf
    dmul.o(x$fpl$dmul) refers (Special) to usenofp.o(x$fpl$usenofp) for __I$use$fp
    dmul.o(x$fpl$dmul) refers to dretinf.o(x$fpl$dretinf) for __fpl_dretinf
    dmul.o(x$fpl$dmul) refers to dnaninf.o(x$fpl$dnaninf) for __fpl_dnaninf
    drleqf.o(x$fpl$drleqf) refers (Special) to usenofp.o(x$fpl$usenofp) for __I$use$fp
    drleqf.o(x$fpl$drleqf) refers to dleqf.o(x$fpl$dleqf) for __fpl_dcmple_InfNaN
    f2d.o(x$fpl$f2d) refers (Special) to usenofp.o(x$fpl$usenofp) for __I$use$fp
    f2d.o(x$fpl$f2d) refers to fnaninf.o(x$fpl$fnaninf) for __fpl_fnaninf
    f2d.o(x$fpl$f2d) refers to dretinf.o(x$fpl$dretinf) for __fpl_dretinf
    acos.o(i.__hardfp_acos) refers (Special) to usenofp.o(x$fpl$usenofp) for __I$use$fp
    acos.o(i.__hardfp_acos) refers to dunder.o(i.__mathlib_dbl_infnan) for __mathlib_dbl_infnan
    acos.o(i.__hardfp_acos) refers to _rserrno.o(.text) for __set_errno
    acos.o(i.__hardfp_acos) refers to dunder.o(i.__mathlib_dbl_invalid) for __mathlib_dbl_invalid
    acos.o(i.__hardfp_acos) refers to dmul.o(x$fpl$dmul) for __aeabi_dmul
    acos.o(i.__hardfp_acos) refers to poly.o(i.__kernel_poly) for __kernel_poly
    acos.o(i.__hardfp_acos) refers to daddsub_clz.o(x$fpl$dadd) for __aeabi_dadd
    acos.o(i.__hardfp_acos) refers to ddiv.o(x$fpl$ddiv) for __aeabi_ddiv
    acos.o(i.__hardfp_acos) refers to daddsub_clz.o(x$fpl$drsb) for __aeabi_drsub
    acos.o(i.__hardfp_acos) refers to sqrt.o(i.sqrt) for sqrt
    acos.o(i.__hardfp_acos) refers to daddsub_clz.o(x$fpl$dsub) for __aeabi_dsub
    acos.o(i.__hardfp_acos) refers to acos.o(.constdata) for .constdata
    acos.o(i.__softfp_acos) refers (Special) to usenofp.o(x$fpl$usenofp) for __I$use$fp
    acos.o(i.__softfp_acos) refers to acos.o(i.__hardfp_acos) for __hardfp_acos
    acos.o(i.acos) refers (Special) to usenofp.o(x$fpl$usenofp) for __I$use$fp
    acos.o(i.acos) refers to acos.o(i.__hardfp_acos) for __hardfp_acos
    acos.o(.constdata) refers (Special) to usenofp.o(x$fpl$usenofp) for __I$use$fp
    acos_x.o(i.____hardfp_acos$lsc) refers (Special) to usenofp.o(x$fpl$usenofp) for __I$use$fp
    acos_x.o(i.____hardfp_acos$lsc) refers to dunder.o(i.__mathlib_dbl_infnan) for __mathlib_dbl_infnan
    acos_x.o(i.____hardfp_acos$lsc) refers to _rserrno.o(.text) for __set_errno
    acos_x.o(i.____hardfp_acos$lsc) refers to dmul.o(x$fpl$dmul) for __aeabi_dmul
    acos_x.o(i.____hardfp_acos$lsc) refers to poly.o(i.__kernel_poly) for __kernel_poly
    acos_x.o(i.____hardfp_acos$lsc) refers to daddsub_clz.o(x$fpl$dadd) for __aeabi_dadd
    acos_x.o(i.____hardfp_acos$lsc) refers to ddiv.o(x$fpl$ddiv) for __aeabi_ddiv
    acos_x.o(i.____hardfp_acos$lsc) refers to daddsub_clz.o(x$fpl$drsb) for __aeabi_drsub
    acos_x.o(i.____hardfp_acos$lsc) refers to sqrt.o(i.sqrt) for sqrt
    acos_x.o(i.____hardfp_acos$lsc) refers to daddsub_clz.o(x$fpl$dsub) for __aeabi_dsub
    acos_x.o(i.____hardfp_acos$lsc) refers to acos_x.o(.constdata) for .constdata
    acos_x.o(i.____softfp_acos$lsc) refers (Special) to usenofp.o(x$fpl$usenofp) for __I$use$fp
    acos_x.o(i.____softfp_acos$lsc) refers to acos_x.o(i.____hardfp_acos$lsc) for ____hardfp_acos$lsc
    acos_x.o(i.__acos$lsc) refers (Special) to usenofp.o(x$fpl$usenofp) for __I$use$fp
    acos_x.o(i.__acos$lsc) refers to acos_x.o(i.____hardfp_acos$lsc) for ____hardfp_acos$lsc
    acos_x.o(.constdata) refers (Special) to usenofp.o(x$fpl$usenofp) for __I$use$fp
    asin.o(i.__hardfp_asin) refers (Special) to usenofp.o(x$fpl$usenofp) for __I$use$fp
    asin.o(i.__hardfp_asin) refers to dunder.o(i.__mathlib_dbl_infnan) for __mathlib_dbl_infnan
    asin.o(i.__hardfp_asin) refers to dmul.o(x$fpl$dmul) for __aeabi_dmul
    asin.o(i.__hardfp_asin) refers to daddsub_clz.o(x$fpl$dadd) for __aeabi_dadd
    asin.o(i.__hardfp_asin) refers to _rserrno.o(.text) for __set_errno
    asin.o(i.__hardfp_asin) refers to dunder.o(i.__mathlib_dbl_invalid) for __mathlib_dbl_invalid
    asin.o(i.__hardfp_asin) refers to fpclassify.o(i.__ARM_fpclassify) for __ARM_fpclassify
    asin.o(i.__hardfp_asin) refers to dunder.o(i.__mathlib_dbl_underflow) for __mathlib_dbl_underflow
    asin.o(i.__hardfp_asin) refers to poly.o(i.__kernel_poly) for __kernel_poly
    asin.o(i.__hardfp_asin) refers to ddiv.o(x$fpl$ddiv) for __aeabi_ddiv
    asin.o(i.__hardfp_asin) refers to fabs.o(i.fabs) for fabs
    asin.o(i.__hardfp_asin) refers to daddsub_clz.o(x$fpl$drsb) for __aeabi_drsub
    asin.o(i.__hardfp_asin) refers to sqrt.o(i.sqrt) for sqrt
    asin.o(i.__hardfp_asin) refers to daddsub_clz.o(x$fpl$dsub) for __aeabi_dsub
    asin.o(i.__hardfp_asin) refers to basic.o(x$fpl$basic) for __aeabi_dneg
    asin.o(i.__hardfp_asin) refers to asin.o(.constdata) for .constdata
    asin.o(i.__softfp_asin) refers (Special) to usenofp.o(x$fpl$usenofp) for __I$use$fp
    asin.o(i.__softfp_asin) refers to asin.o(i.__hardfp_asin) for __hardfp_asin
    asin.o(i.asin) refers (Special) to usenofp.o(x$fpl$usenofp) for __I$use$fp
    asin.o(i.asin) refers to asin.o(i.__hardfp_asin) for __hardfp_asin
    asin.o(.constdata) refers (Special) to usenofp.o(x$fpl$usenofp) for __I$use$fp
    asin_x.o(i.____hardfp_asin$lsc) refers (Special) to usenofp.o(x$fpl$usenofp) for __I$use$fp
    asin_x.o(i.____hardfp_asin$lsc) refers to dunder.o(i.__mathlib_dbl_infnan) for __mathlib_dbl_infnan
    asin_x.o(i.____hardfp_asin$lsc) refers to dmul.o(x$fpl$dmul) for __aeabi_dmul
    asin_x.o(i.____hardfp_asin$lsc) refers to daddsub_clz.o(x$fpl$dadd) for __aeabi_dadd
    asin_x.o(i.____hardfp_asin$lsc) refers to _rserrno.o(.text) for __set_errno
    asin_x.o(i.____hardfp_asin$lsc) refers to poly.o(i.__kernel_poly) for __kernel_poly
    asin_x.o(i.____hardfp_asin$lsc) refers to ddiv.o(x$fpl$ddiv) for __aeabi_ddiv
    asin_x.o(i.____hardfp_asin$lsc) refers to fabs.o(i.fabs) for fabs
    asin_x.o(i.____hardfp_asin$lsc) refers to daddsub_clz.o(x$fpl$drsb) for __aeabi_drsub
    asin_x.o(i.____hardfp_asin$lsc) refers to sqrt.o(i.sqrt) for sqrt
    asin_x.o(i.____hardfp_asin$lsc) refers to daddsub_clz.o(x$fpl$dsub) for __aeabi_dsub
    asin_x.o(i.____hardfp_asin$lsc) refers to basic.o(x$fpl$basic) for __aeabi_dneg
    asin_x.o(i.____hardfp_asin$lsc) refers to asin_x.o(.constdata) for .constdata
    asin_x.o(i.____softfp_asin$lsc) refers (Special) to usenofp.o(x$fpl$usenofp) for __I$use$fp
    asin_x.o(i.____softfp_asin$lsc) refers to asin_x.o(i.____hardfp_asin$lsc) for ____hardfp_asin$lsc
    asin_x.o(i.__asin$lsc) refers (Special) to usenofp.o(x$fpl$usenofp) for __I$use$fp
    asin_x.o(i.__asin$lsc) refers to asin_x.o(i.____hardfp_asin$lsc) for ____hardfp_asin$lsc
    asin_x.o(.constdata) refers (Special) to usenofp.o(x$fpl$usenofp) for __I$use$fp
    atan.o(i.__hardfp_atan) refers (Special) to usenofp.o(x$fpl$usenofp) for __I$use$fp
    atan.o(i.__hardfp_atan) refers to dunder.o(i.__mathlib_dbl_infnan) for __mathlib_dbl_infnan
    atan.o(i.__hardfp_atan) refers to fpclassify.o(i.__ARM_fpclassify) for __ARM_fpclassify
    atan.o(i.__hardfp_atan) refers to dunder.o(i.__mathlib_dbl_underflow) for __mathlib_dbl_underflow
    atan.o(i.__hardfp_atan) refers to fabs.o(i.fabs) for fabs
    atan.o(i.__hardfp_atan) refers to daddsub_clz.o(x$fpl$dadd) for __aeabi_dadd
    atan.o(i.__hardfp_atan) refers to dmul.o(x$fpl$dmul) for __aeabi_dmul
    atan.o(i.__hardfp_atan) refers to daddsub_clz.o(x$fpl$dsub) for __aeabi_dsub
    atan.o(i.__hardfp_atan) refers to ddiv.o(x$fpl$ddiv) for __aeabi_ddiv
    atan.o(i.__hardfp_atan) refers to poly.o(i.__kernel_poly) for __kernel_poly
    atan.o(i.__hardfp_atan) refers to daddsub_clz.o(x$fpl$drsb) for __aeabi_drsub
    atan.o(i.__hardfp_atan) refers to basic.o(x$fpl$basic) for __aeabi_dneg
    atan.o(i.__hardfp_atan) refers to atan.o(.constdata) for .constdata
    atan.o(i.__softfp_atan) refers (Special) to usenofp.o(x$fpl$usenofp) for __I$use$fp
    atan.o(i.__softfp_atan) refers to atan.o(i.__hardfp_atan) for __hardfp_atan
    atan.o(i.atan) refers (Special) to usenofp.o(x$fpl$usenofp) for __I$use$fp
    atan.o(i.atan) refers to atan.o(i.__hardfp_atan) for __hardfp_atan
    atan.o(.constdata) refers (Special) to usenofp.o(x$fpl$usenofp) for __I$use$fp
    atan_x.o(i.____hardfp_atan$lsc) refers (Special) to usenofp.o(x$fpl$usenofp) for __I$use$fp
    atan_x.o(i.____hardfp_atan$lsc) refers to dunder.o(i.__mathlib_dbl_infnan) for __mathlib_dbl_infnan
    atan_x.o(i.____hardfp_atan$lsc) refers to fabs.o(i.fabs) for fabs
    atan_x.o(i.____hardfp_atan$lsc) refers to daddsub_clz.o(x$fpl$dadd) for __aeabi_dadd
    atan_x.o(i.____hardfp_atan$lsc) refers to dmul.o(x$fpl$dmul) for __aeabi_dmul
    atan_x.o(i.____hardfp_atan$lsc) refers to daddsub_clz.o(x$fpl$dsub) for __aeabi_dsub
    atan_x.o(i.____hardfp_atan$lsc) refers to ddiv.o(x$fpl$ddiv) for __aeabi_ddiv
    atan_x.o(i.____hardfp_atan$lsc) refers to poly.o(i.__kernel_poly) for __kernel_poly
    atan_x.o(i.____hardfp_atan$lsc) refers to daddsub_clz.o(x$fpl$drsb) for __aeabi_drsub
    atan_x.o(i.____hardfp_atan$lsc) refers to basic.o(x$fpl$basic) for __aeabi_dneg
    atan_x.o(i.____hardfp_atan$lsc) refers to atan_x.o(.constdata) for .constdata
    atan_x.o(i.____softfp_atan$lsc) refers (Special) to usenofp.o(x$fpl$usenofp) for __I$use$fp
    atan_x.o(i.____softfp_atan$lsc) refers to atan_x.o(i.____hardfp_atan$lsc) for ____hardfp_atan$lsc
    atan_x.o(i.__atan$lsc) refers (Special) to usenofp.o(x$fpl$usenofp) for __I$use$fp
    atan_x.o(i.__atan$lsc) refers to atan_x.o(i.____hardfp_atan$lsc) for ____hardfp_atan$lsc
    atan_x.o(.constdata) refers (Special) to usenofp.o(x$fpl$usenofp) for __I$use$fp
    atan2.o(i.__hardfp_atan2) refers (Special) to usenofp.o(x$fpl$usenofp) for __I$use$fp
    atan2.o(i.__hardfp_atan2) refers to dunder.o(i.__mathlib_dbl_infnan2) for __mathlib_dbl_infnan2
    atan2.o(i.__hardfp_atan2) refers to atan.o(i.atan) for atan
    atan2.o(i.__hardfp_atan2) refers to basic.o(x$fpl$basic) for __aeabi_dneg
    atan2.o(i.__hardfp_atan2) refers to ddiv.o(x$fpl$ddiv) for __aeabi_ddiv
    atan2.o(i.__hardfp_atan2) refers to fabs.o(i.fabs) for fabs
    atan2.o(i.__hardfp_atan2) refers to daddsub_clz.o(x$fpl$dsub) for __aeabi_dsub
    atan2.o(i.__hardfp_atan2) refers to daddsub_clz.o(x$fpl$drsb) for __aeabi_drsub
    atan2.o(i.__hardfp_atan2) refers to qnan.o(.constdata) for __mathlib_zero
    atan2.o(i.__softfp_atan2) refers (Special) to usenofp.o(x$fpl$usenofp) for __I$use$fp
    atan2.o(i.__softfp_atan2) refers to atan2.o(i.__hardfp_atan2) for __hardfp_atan2
    atan2.o(i.atan2) refers (Special) to usenofp.o(x$fpl$usenofp) for __I$use$fp
    atan2.o(i.atan2) refers to atan2.o(i.__hardfp_atan2) for __hardfp_atan2
    atan2_x.o(i.____hardfp_atan2$lsc) refers (Special) to usenofp.o(x$fpl$usenofp) for __I$use$fp
    atan2_x.o(i.____hardfp_atan2$lsc) refers to dunder.o(i.__mathlib_dbl_infnan2) for __mathlib_dbl_infnan2
    atan2_x.o(i.____hardfp_atan2$lsc) refers to atan.o(i.atan) for atan
    atan2_x.o(i.____hardfp_atan2$lsc) refers to _rserrno.o(.text) for __set_errno
    atan2_x.o(i.____hardfp_atan2$lsc) refers to basic.o(x$fpl$basic) for __aeabi_dneg
    atan2_x.o(i.____hardfp_atan2$lsc) refers to ddiv.o(x$fpl$ddiv) for __aeabi_ddiv
    atan2_x.o(i.____hardfp_atan2$lsc) refers to fabs.o(i.fabs) for fabs
    atan2_x.o(i.____hardfp_atan2$lsc) refers to daddsub_clz.o(x$fpl$dsub) for __aeabi_dsub
    atan2_x.o(i.____hardfp_atan2$lsc) refers to daddsub_clz.o(x$fpl$drsb) for __aeabi_drsub
    atan2_x.o(i.____hardfp_atan2$lsc) refers to qnan.o(.constdata) for __mathlib_zero
    atan2_x.o(i.____softfp_atan2$lsc) refers (Special) to usenofp.o(x$fpl$usenofp) for __I$use$fp
    atan2_x.o(i.____softfp_atan2$lsc) refers to atan2_x.o(i.____hardfp_atan2$lsc) for ____hardfp_atan2$lsc
    atan2_x.o(i.__atan2$lsc) refers (Special) to usenofp.o(x$fpl$usenofp) for __I$use$fp
    atan2_x.o(i.__atan2$lsc) refers to atan2_x.o(i.____hardfp_atan2$lsc) for ____hardfp_atan2$lsc
    atan2f.o(i.__hardfp_atan2f) refers (Special) to usenofp.o(x$fpl$usenofp) for __I$use$fp
    atan2f.o(i.__hardfp_atan2f) refers to fpclassifyf.o(i.__ARM_fpclassifyf) for __ARM_fpclassifyf
    atan2f.o(i.__hardfp_atan2f) refers to funder.o(i.__mathlib_flt_underflow) for __mathlib_flt_underflow
    atan2f.o(i.__hardfp_atan2f) refers to funder.o(i.__mathlib_flt_infnan2) for __mathlib_flt_infnan2
    atan2f.o(i.__softfp_atan2f) refers (Special) to usenofp.o(x$fpl$usenofp) for __I$use$fp
    atan2f.o(i.__softfp_atan2f) refers to atan2f.o(i.__hardfp_atan2f) for __hardfp_atan2f
    atan2f.o(i.atan2f) refers (Special) to usenofp.o(x$fpl$usenofp) for __I$use$fp
    atan2f.o(i.atan2f) refers to atan2f.o(i.__hardfp_atan2f) for __hardfp_atan2f
    atan2f_x.o(i.____hardfp_atan2f$lsc) refers (Special) to usenofp.o(x$fpl$usenofp) for __I$use$fp
    atan2f_x.o(i.____hardfp_atan2f$lsc) refers to funder.o(i.__mathlib_flt_infnan2) for __mathlib_flt_infnan2
    atan2f_x.o(i.____hardfp_atan2f$lsc) refers to _rserrno.o(.text) for __set_errno
    atan2f_x.o(i.____softfp_atan2f$lsc) refers (Special) to usenofp.o(x$fpl$usenofp) for __I$use$fp
    atan2f_x.o(i.____softfp_atan2f$lsc) refers to atan2f_x.o(i.____hardfp_atan2f$lsc) for ____hardfp_atan2f$lsc
    atan2f_x.o(i.__atan2f$lsc) refers (Special) to usenofp.o(x$fpl$usenofp) for __I$use$fp
    atan2f_x.o(i.__atan2f$lsc) refers to atan2f_x.o(i.____hardfp_atan2f$lsc) for ____hardfp_atan2f$lsc
    cos.o(i.__hardfp_cos) refers (Special) to usenofp.o(x$fpl$usenofp) for __I$use$fp
    cos.o(i.__hardfp_cos) refers to _rserrno.o(.text) for __set_errno
    cos.o(i.__hardfp_cos) refers to dunder.o(i.__mathlib_dbl_invalid) for __mathlib_dbl_invalid
    cos.o(i.__hardfp_cos) refers to dunder.o(i.__mathlib_dbl_infnan) for __mathlib_dbl_infnan
    cos.o(i.__hardfp_cos) refers to rred.o(i.__ieee754_rem_pio2) for __ieee754_rem_pio2
    cos.o(i.__hardfp_cos) refers to sin_i.o(i.__kernel_sin) for __kernel_sin
    cos.o(i.__hardfp_cos) refers to cos_i.o(i.__kernel_cos) for __kernel_cos
    cos.o(i.__hardfp_cos) refers to basic.o(x$fpl$basic) for __aeabi_dneg
    cos.o(i.__softfp_cos) refers (Special) to usenofp.o(x$fpl$usenofp) for __I$use$fp
    cos.o(i.__softfp_cos) refers to cos.o(i.__hardfp_cos) for __hardfp_cos
    cos.o(i.cos) refers (Special) to usenofp.o(x$fpl$usenofp) for __I$use$fp
    cos.o(i.cos) refers to cos.o(i.__hardfp_cos) for __hardfp_cos
    cos_x.o(i.____hardfp_cos$lsc) refers (Special) to usenofp.o(x$fpl$usenofp) for __I$use$fp
    cos_x.o(i.____hardfp_cos$lsc) refers to _rserrno.o(.text) for __set_errno
    cos_x.o(i.____hardfp_cos$lsc) refers to dunder.o(i.__mathlib_dbl_infnan) for __mathlib_dbl_infnan
    cos_x.o(i.____hardfp_cos$lsc) refers to rred.o(i.__ieee754_rem_pio2) for __ieee754_rem_pio2
    cos_x.o(i.____hardfp_cos$lsc) refers to sin_i.o(i.__kernel_sin) for __kernel_sin
    cos_x.o(i.____hardfp_cos$lsc) refers to cos_i.o(i.__kernel_cos) for __kernel_cos
    cos_x.o(i.____hardfp_cos$lsc) refers to basic.o(x$fpl$basic) for __aeabi_dneg
    cos_x.o(i.____softfp_cos$lsc) refers (Special) to usenofp.o(x$fpl$usenofp) for __I$use$fp
    cos_x.o(i.____softfp_cos$lsc) refers to cos_x.o(i.____hardfp_cos$lsc) for ____hardfp_cos$lsc
    cos_x.o(i.__cos$lsc) refers (Special) to usenofp.o(x$fpl$usenofp) for __I$use$fp
    cos_x.o(i.__cos$lsc) refers to cos_x.o(i.____hardfp_cos$lsc) for ____hardfp_cos$lsc
    cosf.o(i.__hardfp_cosf) refers (Special) to usenofp.o(x$fpl$usenofp) for __I$use$fp
    cosf.o(i.__hardfp_cosf) refers to rredf.o(i.__mathlib_rredf2) for __mathlib_rredf2
    cosf.o(i.__hardfp_cosf) refers to _rserrno.o(.text) for __set_errno
    cosf.o(i.__hardfp_cosf) refers to funder.o(i.__mathlib_flt_invalid) for __mathlib_flt_invalid
    cosf.o(i.__hardfp_cosf) refers to funder.o(i.__mathlib_flt_infnan) for __mathlib_flt_infnan
    cosf.o(i.__softfp_cosf) refers (Special) to usenofp.o(x$fpl$usenofp) for __I$use$fp
    cosf.o(i.__softfp_cosf) refers to cosf.o(i.__hardfp_cosf) for __hardfp_cosf
    cosf.o(i.cosf) refers (Special) to usenofp.o(x$fpl$usenofp) for __I$use$fp
    cosf.o(i.cosf) refers to cosf.o(i.__hardfp_cosf) for __hardfp_cosf
    cosf_x.o(i.____hardfp_cosf$lsc) refers (Special) to usenofp.o(x$fpl$usenofp) for __I$use$fp
    cosf_x.o(i.____hardfp_cosf$lsc) refers to rredf.o(i.__mathlib_rredf2) for __mathlib_rredf2
    cosf_x.o(i.____hardfp_cosf$lsc) refers to _rserrno.o(.text) for __set_errno
    cosf_x.o(i.____hardfp_cosf$lsc) refers to funder.o(i.__mathlib_flt_infnan) for __mathlib_flt_infnan
    cosf_x.o(i.____softfp_cosf$lsc) refers (Special) to usenofp.o(x$fpl$usenofp) for __I$use$fp
    cosf_x.o(i.____softfp_cosf$lsc) refers to cosf_x.o(i.____hardfp_cosf$lsc) for ____hardfp_cosf$lsc
    cosf_x.o(i.__cosf$lsc) refers (Special) to usenofp.o(x$fpl$usenofp) for __I$use$fp
    cosf_x.o(i.__cosf$lsc) refers to cosf_x.o(i.____hardfp_cosf$lsc) for ____hardfp_cosf$lsc
    fabs.o(i.__hardfp_fabs) refers (Special) to usenofp.o(x$fpl$usenofp) for __I$use$fp
    fabs.o(i.__softfp_fabs) refers (Special) to usenofp.o(x$fpl$usenofp) for __I$use$fp
    fabs.o(i.fabs) refers (Special) to usenofp.o(x$fpl$usenofp) for __I$use$fp
    pow.o(i.__hardfp_pow) refers (Special) to usenofp.o(x$fpl$usenofp) for __I$use$fp
    pow.o(i.__hardfp_pow) refers to dunder.o(i.__mathlib_dbl_infnan2) for __mathlib_dbl_infnan2
    pow.o(i.__hardfp_pow) refers to _rserrno.o(.text) for __set_errno
    pow.o(i.__hardfp_pow) refers to dunder.o(i.__mathlib_dbl_divzero) for __mathlib_dbl_divzero
    pow.o(i.__hardfp_pow) refers to basic.o(x$fpl$basic) for __aeabi_dneg
    pow.o(i.__hardfp_pow) refers to dunder.o(i.__mathlib_dbl_overflow) for __mathlib_dbl_overflow
    pow.o(i.__hardfp_pow) refers to ddiv.o(x$fpl$ddiv) for __aeabi_ddiv
    pow.o(i.__hardfp_pow) refers to sqrt.o(i.sqrt) for sqrt
    pow.o(i.__hardfp_pow) refers to fabs.o(i.fabs) for fabs
    pow.o(i.__hardfp_pow) refers to dflt_clz.o(x$fpl$dflt) for __aeabi_i2d
    pow.o(i.__hardfp_pow) refers to dunder.o(i.__mathlib_dbl_invalid) for __mathlib_dbl_invalid
    pow.o(i.__hardfp_pow) refers to dmul.o(x$fpl$dmul) for __aeabi_dmul
    pow.o(i.__hardfp_pow) refers to dunder.o(i.__mathlib_dbl_underflow) for __mathlib_dbl_underflow
    pow.o(i.__hardfp_pow) refers to daddsub_clz.o(x$fpl$dsub) for __aeabi_dsub
    pow.o(i.__hardfp_pow) refers to daddsub_clz.o(x$fpl$drsb) for __aeabi_drsub
    pow.o(i.__hardfp_pow) refers to qnan.o(.constdata) for __mathlib_zero
    pow.o(i.__hardfp_pow) refers to daddsub_clz.o(x$fpl$dadd) for __aeabi_dadd
    pow.o(i.__hardfp_pow) refers to poly.o(i.__kernel_poly) for __kernel_poly
    pow.o(i.__hardfp_pow) refers to pow.o(.constdata) for .constdata
    pow.o(i.__hardfp_pow) refers to drleqf.o(x$fpl$drleqf) for __aeabi_cdrcmple
    pow.o(i.__hardfp_pow) refers to scalbn.o(x$fpl$scalbn) for __ARM_scalbn
    pow.o(i.__hardfp_pow) refers to fpclassify.o(i.__ARM_fpclassify) for __ARM_fpclassify
    pow.o(i.__softfp_pow) refers (Special) to usenofp.o(x$fpl$usenofp) for __I$use$fp
    pow.o(i.__softfp_pow) refers to pow.o(i.__hardfp_pow) for __hardfp_pow
    pow.o(i.pow) refers (Special) to usenofp.o(x$fpl$usenofp) for __I$use$fp
    pow.o(i.pow) refers to pow.o(i.__hardfp_pow) for __hardfp_pow
    pow.o(.constdata) refers (Special) to usenofp.o(x$fpl$usenofp) for __I$use$fp
    pow_x.o(i.____hardfp_pow$lsc) refers (Special) to usenofp.o(x$fpl$usenofp) for __I$use$fp
    pow_x.o(i.____hardfp_pow$lsc) refers to dunder.o(i.__mathlib_dbl_infnan2) for __mathlib_dbl_infnan2
    pow_x.o(i.____hardfp_pow$lsc) refers to _rserrno.o(.text) for __set_errno
    pow_x.o(i.____hardfp_pow$lsc) refers to basic.o(x$fpl$basic) for __aeabi_dneg
    pow_x.o(i.____hardfp_pow$lsc) refers to ddiv.o(x$fpl$ddiv) for __aeabi_ddiv
    pow_x.o(i.____hardfp_pow$lsc) refers to sqrt.o(i.sqrt) for sqrt
    pow_x.o(i.____hardfp_pow$lsc) refers to fabs.o(i.fabs) for fabs
    pow_x.o(i.____hardfp_pow$lsc) refers to dflt_clz.o(x$fpl$dflt) for __aeabi_i2d
    pow_x.o(i.____hardfp_pow$lsc) refers to dmul.o(x$fpl$dmul) for __aeabi_dmul
    pow_x.o(i.____hardfp_pow$lsc) refers to daddsub_clz.o(x$fpl$dsub) for __aeabi_dsub
    pow_x.o(i.____hardfp_pow$lsc) refers to daddsub_clz.o(x$fpl$drsb) for __aeabi_drsub
    pow_x.o(i.____hardfp_pow$lsc) refers to qnan.o(.constdata) for __mathlib_zero
    pow_x.o(i.____hardfp_pow$lsc) refers to daddsub_clz.o(x$fpl$dadd) for __aeabi_dadd
    pow_x.o(i.____hardfp_pow$lsc) refers to poly.o(i.__kernel_poly) for __kernel_poly
    pow_x.o(i.____hardfp_pow$lsc) refers to pow_x.o(.constdata) for .constdata
    pow_x.o(i.____hardfp_pow$lsc) refers to drleqf.o(x$fpl$drleqf) for __aeabi_cdrcmple
    pow_x.o(i.____hardfp_pow$lsc) refers to scalbn.o(x$fpl$scalbn) for __ARM_scalbn
    pow_x.o(i.____softfp_pow$lsc) refers (Special) to usenofp.o(x$fpl$usenofp) for __I$use$fp
    pow_x.o(i.____softfp_pow$lsc) refers to pow_x.o(i.____hardfp_pow$lsc) for ____hardfp_pow$lsc
    pow_x.o(i.__pow$lsc) refers (Special) to usenofp.o(x$fpl$usenofp) for __I$use$fp
    pow_x.o(i.__pow$lsc) refers to pow_x.o(i.____hardfp_pow$lsc) for ____hardfp_pow$lsc
    pow_x.o(.constdata) refers (Special) to usenofp.o(x$fpl$usenofp) for __I$use$fp
    sin.o(i.__hardfp_sin) refers (Special) to usenofp.o(x$fpl$usenofp) for __I$use$fp
    sin.o(i.__hardfp_sin) refers to _rserrno.o(.text) for __set_errno
    sin.o(i.__hardfp_sin) refers to dunder.o(i.__mathlib_dbl_invalid) for __mathlib_dbl_invalid
    sin.o(i.__hardfp_sin) refers to dunder.o(i.__mathlib_dbl_infnan) for __mathlib_dbl_infnan
    sin.o(i.__hardfp_sin) refers to rred.o(i.__ieee754_rem_pio2) for __ieee754_rem_pio2
    sin.o(i.__hardfp_sin) refers to cos_i.o(i.__kernel_cos) for __kernel_cos
    sin.o(i.__hardfp_sin) refers to basic.o(x$fpl$basic) for __aeabi_dneg
    sin.o(i.__hardfp_sin) refers to sin_i.o(i.__kernel_sin) for __kernel_sin
    sin.o(i.__softfp_sin) refers (Special) to usenofp.o(x$fpl$usenofp) for __I$use$fp
    sin.o(i.__softfp_sin) refers to sin.o(i.__hardfp_sin) for __hardfp_sin
    sin.o(i.sin) refers (Special) to usenofp.o(x$fpl$usenofp) for __I$use$fp
    sin.o(i.sin) refers to sin.o(i.__hardfp_sin) for __hardfp_sin
    sin_x.o(i.____hardfp_sin$lsc) refers (Special) to usenofp.o(x$fpl$usenofp) for __I$use$fp
    sin_x.o(i.____hardfp_sin$lsc) refers to _rserrno.o(.text) for __set_errno
    sin_x.o(i.____hardfp_sin$lsc) refers to dunder.o(i.__mathlib_dbl_infnan) for __mathlib_dbl_infnan
    sin_x.o(i.____hardfp_sin$lsc) refers to rred.o(i.__ieee754_rem_pio2) for __ieee754_rem_pio2
    sin_x.o(i.____hardfp_sin$lsc) refers to cos_i.o(i.__kernel_cos) for __kernel_cos
    sin_x.o(i.____hardfp_sin$lsc) refers to basic.o(x$fpl$basic) for __aeabi_dneg
    sin_x.o(i.____hardfp_sin$lsc) refers to sin_i.o(i.__kernel_sin) for __kernel_sin
    sin_x.o(i.____softfp_sin$lsc) refers (Special) to usenofp.o(x$fpl$usenofp) for __I$use$fp
    sin_x.o(i.____softfp_sin$lsc) refers to sin_x.o(i.____hardfp_sin$lsc) for ____hardfp_sin$lsc
    sin_x.o(i.__sin$lsc) refers (Special) to usenofp.o(x$fpl$usenofp) for __I$use$fp
    sin_x.o(i.__sin$lsc) refers to sin_x.o(i.____hardfp_sin$lsc) for ____hardfp_sin$lsc
    sinf.o(i.__hardfp_sinf) refers (Special) to usenofp.o(x$fpl$usenofp) for __I$use$fp
    sinf.o(i.__hardfp_sinf) refers to rredf.o(i.__mathlib_rredf2) for __mathlib_rredf2
    sinf.o(i.__hardfp_sinf) refers to fpclassifyf.o(i.__ARM_fpclassifyf) for __ARM_fpclassifyf
    sinf.o(i.__hardfp_sinf) refers to funder.o(i.__mathlib_flt_underflow) for __mathlib_flt_underflow
    sinf.o(i.__hardfp_sinf) refers to _rserrno.o(.text) for __set_errno
    sinf.o(i.__hardfp_sinf) refers to funder.o(i.__mathlib_flt_invalid) for __mathlib_flt_invalid
    sinf.o(i.__hardfp_sinf) refers to funder.o(i.__mathlib_flt_infnan) for __mathlib_flt_infnan
    sinf.o(i.__softfp_sinf) refers (Special) to usenofp.o(x$fpl$usenofp) for __I$use$fp
    sinf.o(i.__softfp_sinf) refers to sinf.o(i.__hardfp_sinf) for __hardfp_sinf
    sinf.o(i.sinf) refers (Special) to usenofp.o(x$fpl$usenofp) for __I$use$fp
    sinf.o(i.sinf) refers to sinf.o(i.__hardfp_sinf) for __hardfp_sinf
    sinf_x.o(i.____hardfp_sinf$lsc) refers (Special) to usenofp.o(x$fpl$usenofp) for __I$use$fp
    sinf_x.o(i.____hardfp_sinf$lsc) refers to rredf.o(i.__mathlib_rredf2) for __mathlib_rredf2
    sinf_x.o(i.____hardfp_sinf$lsc) refers to _rserrno.o(.text) for __set_errno
    sinf_x.o(i.____hardfp_sinf$lsc) refers to funder.o(i.__mathlib_flt_infnan) for __mathlib_flt_infnan
    sinf_x.o(i.____softfp_sinf$lsc) refers (Special) to usenofp.o(x$fpl$usenofp) for __I$use$fp
    sinf_x.o(i.____softfp_sinf$lsc) refers to sinf_x.o(i.____hardfp_sinf$lsc) for ____hardfp_sinf$lsc
    sinf_x.o(i.__sinf$lsc) refers (Special) to usenofp.o(x$fpl$usenofp) for __I$use$fp
    sinf_x.o(i.__sinf$lsc) refers to sinf_x.o(i.____hardfp_sinf$lsc) for ____hardfp_sinf$lsc
    sqrt.o(i.__hardfp_sqrt) refers (Special) to usenofp.o(x$fpl$usenofp) for __I$use$fp
    sqrt.o(i.__hardfp_sqrt) refers to dsqrt_umaal.o(x$fpl$dsqrt) for _dsqrt
    sqrt.o(i.__hardfp_sqrt) refers to _rserrno.o(.text) for __set_errno
    sqrt.o(i.__softfp_sqrt) refers (Special) to usenofp.o(x$fpl$usenofp) for __I$use$fp
    sqrt.o(i.__softfp_sqrt) refers to dsqrt_umaal.o(x$fpl$dsqrt) for _dsqrt
    sqrt.o(i.__softfp_sqrt) refers to _rserrno.o(.text) for __set_errno
    sqrt.o(i.sqrt) refers (Special) to usenofp.o(x$fpl$usenofp) for __I$use$fp
    sqrt.o(i.sqrt) refers to dsqrt_umaal.o(x$fpl$dsqrt) for _dsqrt
    sqrt.o(i.sqrt) refers to _rserrno.o(.text) for __set_errno
    sqrt_x.o(i.____hardfp_sqrt$lsc) refers (Special) to usenofp.o(x$fpl$usenofp) for __I$use$fp
    sqrt_x.o(i.____hardfp_sqrt$lsc) refers to dleqf.o(x$fpl$dleqf) for __aeabi_cdcmple
    sqrt_x.o(i.____hardfp_sqrt$lsc) refers to _rserrno.o(.text) for __set_errno
    sqrt_x.o(i.____hardfp_sqrt$lsc) refers to dsqrt_umaal.o(x$fpl$dsqrt) for _dsqrt
    sqrt_x.o(i.____softfp_sqrt$lsc) refers (Special) to usenofp.o(x$fpl$usenofp) for __I$use$fp
    sqrt_x.o(i.____softfp_sqrt$lsc) refers to dleqf.o(x$fpl$dleqf) for __aeabi_cdcmple
    sqrt_x.o(i.____softfp_sqrt$lsc) refers to _rserrno.o(.text) for __set_errno
    sqrt_x.o(i.____softfp_sqrt$lsc) refers to dsqrt_umaal.o(x$fpl$dsqrt) for _dsqrt
    sqrt_x.o(i.__sqrt$lsc) refers (Special) to usenofp.o(x$fpl$usenofp) for __I$use$fp
    sqrt_x.o(i.__sqrt$lsc) refers to dleqf.o(x$fpl$dleqf) for __aeabi_cdcmple
    sqrt_x.o(i.__sqrt$lsc) refers to _rserrno.o(.text) for __set_errno
    sqrt_x.o(i.__sqrt$lsc) refers to dsqrt_umaal.o(x$fpl$dsqrt) for _dsqrt
    tan.o(i.__hardfp_tan) refers (Special) to usenofp.o(x$fpl$usenofp) for __I$use$fp
    tan.o(i.__hardfp_tan) refers to _rserrno.o(.text) for __set_errno
    tan.o(i.__hardfp_tan) refers to dunder.o(i.__mathlib_dbl_invalid) for __mathlib_dbl_invalid
    tan.o(i.__hardfp_tan) refers to dunder.o(i.__mathlib_dbl_infnan) for __mathlib_dbl_infnan
    tan.o(i.__hardfp_tan) refers to rred.o(i.__ieee754_rem_pio2) for __ieee754_rem_pio2
    tan.o(i.__hardfp_tan) refers to tan_i.o(i.__kernel_tan) for __kernel_tan
    tan.o(i.__softfp_tan) refers (Special) to usenofp.o(x$fpl$usenofp) for __I$use$fp
    tan.o(i.__softfp_tan) refers to _rserrno.o(.text) for __set_errno
    tan.o(i.__softfp_tan) refers to dunder.o(i.__mathlib_dbl_invalid) for __mathlib_dbl_invalid
    tan.o(i.__softfp_tan) refers to dunder.o(i.__mathlib_dbl_infnan) for __mathlib_dbl_infnan
    tan.o(i.__softfp_tan) refers to rred.o(i.__ieee754_rem_pio2) for __ieee754_rem_pio2
    tan.o(i.__softfp_tan) refers to tan_i.o(i.__kernel_tan) for __kernel_tan
    tan.o(i.tan) refers (Special) to usenofp.o(x$fpl$usenofp) for __I$use$fp
    tan.o(i.tan) refers to _rserrno.o(.text) for __set_errno
    tan.o(i.tan) refers to dunder.o(i.__mathlib_dbl_invalid) for __mathlib_dbl_invalid
    tan.o(i.tan) refers to dunder.o(i.__mathlib_dbl_infnan) for __mathlib_dbl_infnan
    tan.o(i.tan) refers to rred.o(i.__ieee754_rem_pio2) for __ieee754_rem_pio2
    tan.o(i.tan) refers to tan_i.o(i.__kernel_tan) for __kernel_tan
    tan_x.o(i.____hardfp_tan$lsc) refers (Special) to usenofp.o(x$fpl$usenofp) for __I$use$fp
    tan_x.o(i.____hardfp_tan$lsc) refers to _rserrno.o(.text) for __set_errno
    tan_x.o(i.____hardfp_tan$lsc) refers to dunder.o(i.__mathlib_dbl_infnan) for __mathlib_dbl_infnan
    tan_x.o(i.____hardfp_tan$lsc) refers to rred.o(i.__ieee754_rem_pio2) for __ieee754_rem_pio2
    tan_x.o(i.____hardfp_tan$lsc) refers to tan_i.o(i.__kernel_tan) for __kernel_tan
    tan_x.o(i.____softfp_tan$lsc) refers (Special) to usenofp.o(x$fpl$usenofp) for __I$use$fp
    tan_x.o(i.____softfp_tan$lsc) refers to _rserrno.o(.text) for __set_errno
    tan_x.o(i.____softfp_tan$lsc) refers to dunder.o(i.__mathlib_dbl_infnan) for __mathlib_dbl_infnan
    tan_x.o(i.____softfp_tan$lsc) refers to rred.o(i.__ieee754_rem_pio2) for __ieee754_rem_pio2
    tan_x.o(i.____softfp_tan$lsc) refers to tan_i.o(i.__kernel_tan) for __kernel_tan
    tan_x.o(i.__tan$lsc) refers (Special) to usenofp.o(x$fpl$usenofp) for __I$use$fp
    tan_x.o(i.__tan$lsc) refers to _rserrno.o(.text) for __set_errno
    tan_x.o(i.__tan$lsc) refers to dunder.o(i.__mathlib_dbl_infnan) for __mathlib_dbl_infnan
    tan_x.o(i.__tan$lsc) refers to rred.o(i.__ieee754_rem_pio2) for __ieee754_rem_pio2
    tan_x.o(i.__tan$lsc) refers to tan_i.o(i.__kernel_tan) for __kernel_tan
    __rtentry.o(.ARM.Collect$$rtentry$$00000000) refers (Special) to __rtentry2.o(.ARM.Collect$$rtentry$$0000000A) for __rt_entry_li
    __rtentry.o(.ARM.Collect$$rtentry$$00000000) refers (Special) to __rtentry2.o(.ARM.Collect$$rtentry$$0000000D) for __rt_entry_main
    __rtentry.o(.ARM.Collect$$rtentry$$00000000) refers (Special) to __rtentry2.o(.ARM.Collect$$rtentry$$0000000C) for __rt_entry_postli_1
    __rtentry.o(.ARM.Collect$$rtentry$$00000000) refers (Special) to __rtentry2.o(.ARM.Collect$$rtentry$$00000009) for __rt_entry_postsh_1
    __rtentry.o(.ARM.Collect$$rtentry$$00000000) refers (Special) to __rtentry2.o(.ARM.Collect$$rtentry$$00000002) for __rt_entry_presh_1
    __rtentry.o(.ARM.Collect$$rtentry$$00000000) refers (Special) to __rtentry4.o(.ARM.Collect$$rtentry$$00000004) for __rt_entry_sh
    _rserrno.o(.text) refers to rt_errno_addr_intlibspace.o(.text) for __aeabi_errno_addr
    dcmpi.o(x$fpl$dcmpinf) refers (Special) to usenofp.o(x$fpl$usenofp) for __I$use$fp
    dnaninf.o(x$fpl$dnaninf) refers (Special) to usenofp.o(x$fpl$usenofp) for __I$use$fp
    dretinf.o(x$fpl$dretinf) refers (Special) to usenofp.o(x$fpl$usenofp) for __I$use$fp
    dsqrt_umaal.o(x$fpl$dsqrt) refers (Special) to usenofp.o(x$fpl$usenofp) for __I$use$fp
    dsqrt_umaal.o(x$fpl$dsqrt) refers to dnaninf.o(x$fpl$dnaninf) for __fpl_dnaninf
    fnaninf.o(x$fpl$fnaninf) refers (Special) to usenofp.o(x$fpl$usenofp) for __I$use$fp
    fretinf.o(x$fpl$fretinf) refers (Special) to usenofp.o(x$fpl$usenofp) for __I$use$fp
    scalbn.o(x$fpl$scalbn) refers (Special) to usenofp.o(x$fpl$usenofp) for __I$use$fp
    scalbn.o(x$fpl$scalbn) refers to dcheck1.o(x$fpl$dcheck1) for __fpl_dcheck_NaN1
    cos_i.o(i.__kernel_cos) refers (Special) to usenofp.o(x$fpl$usenofp) for __I$use$fp
    cos_i.o(i.__kernel_cos) refers to dfix.o(x$fpl$dfix) for __aeabi_d2iz
    cos_i.o(i.__kernel_cos) refers to dmul.o(x$fpl$dmul) for __aeabi_dmul
    cos_i.o(i.__kernel_cos) refers to poly.o(i.__kernel_poly) for __kernel_poly
    cos_i.o(i.__kernel_cos) refers to daddsub_clz.o(x$fpl$dsub) for __aeabi_dsub
    cos_i.o(i.__kernel_cos) refers to daddsub_clz.o(x$fpl$drsb) for __aeabi_drsub
    cos_i.o(i.__kernel_cos) refers to cos_i.o(.constdata) for .constdata
    cos_i.o(.constdata) refers (Special) to usenofp.o(x$fpl$usenofp) for __I$use$fp
    dunder.o(i.__mathlib_dbl_divzero) refers to ddiv.o(x$fpl$ddiv) for __aeabi_ddiv
    dunder.o(i.__mathlib_dbl_infnan) refers to daddsub_clz.o(x$fpl$dadd) for __aeabi_dadd
    dunder.o(i.__mathlib_dbl_infnan2) refers to daddsub_clz.o(x$fpl$dadd) for __aeabi_dadd
    dunder.o(i.__mathlib_dbl_invalid) refers to ddiv.o(x$fpl$ddiv) for __aeabi_ddiv
    dunder.o(i.__mathlib_dbl_overflow) refers to dmul.o(x$fpl$dmul) for __aeabi_dmul
    dunder.o(i.__mathlib_dbl_posinfnan) refers to dmul.o(x$fpl$dmul) for __aeabi_dmul
    dunder.o(i.__mathlib_dbl_underflow) refers to dmul.o(x$fpl$dmul) for __aeabi_dmul
    fpclassify.o(i.__ARM_fpclassify) refers (Special) to usenofp.o(x$fpl$usenofp) for __I$use$fp
    fpclassifyf.o(i.__ARM_fpclassifyf) refers (Special) to usenofp.o(x$fpl$usenofp) for __I$use$fp
    poly.o(i.__kernel_poly) refers (Special) to usenofp.o(x$fpl$usenofp) for __I$use$fp
    poly.o(i.__kernel_poly) refers to dmul.o(x$fpl$dmul) for __aeabi_dmul
    poly.o(i.__kernel_poly) refers to daddsub_clz.o(x$fpl$dadd) for __aeabi_dadd
    qnan.o(.constdata) refers (Special) to usenofp.o(x$fpl$usenofp) for __I$use$fp
    rred.o(i.__ieee754_rem_pio2) refers (Special) to usenofp.o(x$fpl$usenofp) for __I$use$fp
    rred.o(i.__ieee754_rem_pio2) refers to daddsub_clz.o(x$fpl$dsub) for __aeabi_dsub
    rred.o(i.__ieee754_rem_pio2) refers to daddsub_clz.o(x$fpl$dadd) for __aeabi_dadd
    rred.o(i.__ieee754_rem_pio2) refers to fabs.o(i.fabs) for fabs
    rred.o(i.__ieee754_rem_pio2) refers to dmul.o(x$fpl$dmul) for __aeabi_dmul
    rred.o(i.__ieee754_rem_pio2) refers to dfix.o(x$fpl$dfix) for __aeabi_d2iz
    rred.o(i.__ieee754_rem_pio2) refers to dflt_clz.o(x$fpl$dflt) for __aeabi_i2d
    rred.o(i.__ieee754_rem_pio2) refers to daddsub_clz.o(x$fpl$drsb) for __aeabi_drsub
    rred.o(i.__ieee754_rem_pio2) refers to basic.o(x$fpl$basic) for __aeabi_dneg
    rred.o(i.__ieee754_rem_pio2) refers to dflt_clz.o(x$fpl$dfltu) for __aeabi_ui2d
    rred.o(i.__ieee754_rem_pio2) refers to rred.o(.constdata) for .constdata
    rred.o(i.__use_accurate_range_reduction) refers (Special) to usenofp.o(x$fpl$usenofp) for __I$use$fp
    rred.o(.constdata) refers (Special) to usenofp.o(x$fpl$usenofp) for __I$use$fp
    rredf.o(i.__mathlib_rredf2) refers (Special) to usenofp.o(x$fpl$usenofp) for __I$use$fp
    rredf.o(i.__mathlib_rredf2) refers to rredf.o(.constdata) for .constdata
    rredf.o(.constdata) refers (Special) to usenofp.o(x$fpl$usenofp) for __I$use$fp
    sin_i.o(i.__kernel_sin) refers (Special) to usenofp.o(x$fpl$usenofp) for __I$use$fp
    sin_i.o(i.__kernel_sin) refers to fpclassify.o(i.__ARM_fpclassify) for __ARM_fpclassify
    sin_i.o(i.__kernel_sin) refers to dunder.o(i.__mathlib_dbl_underflow) for __mathlib_dbl_underflow
    sin_i.o(i.__kernel_sin) refers to dmul.o(x$fpl$dmul) for __aeabi_dmul
    sin_i.o(i.__kernel_sin) refers to poly.o(i.__kernel_poly) for __kernel_poly
    sin_i.o(i.__kernel_sin) refers to daddsub_clz.o(x$fpl$dsub) for __aeabi_dsub
    sin_i.o(i.__kernel_sin) refers to daddsub_clz.o(x$fpl$drsb) for __aeabi_drsub
    sin_i.o(i.__kernel_sin) refers to daddsub_clz.o(x$fpl$dadd) for __aeabi_dadd
    sin_i.o(i.__kernel_sin) refers to sin_i.o(.constdata) for .constdata
    sin_i.o(.constdata) refers (Special) to usenofp.o(x$fpl$usenofp) for __I$use$fp
    sin_i_x.o(i.____kernel_sin$lsc) refers (Special) to usenofp.o(x$fpl$usenofp) for __I$use$fp
    sin_i_x.o(i.____kernel_sin$lsc) refers to dmul.o(x$fpl$dmul) for __aeabi_dmul
    sin_i_x.o(i.____kernel_sin$lsc) refers to poly.o(i.__kernel_poly) for __kernel_poly
    sin_i_x.o(i.____kernel_sin$lsc) refers to daddsub_clz.o(x$fpl$dsub) for __aeabi_dsub
    sin_i_x.o(i.____kernel_sin$lsc) refers to daddsub_clz.o(x$fpl$drsb) for __aeabi_drsub
    sin_i_x.o(i.____kernel_sin$lsc) refers to daddsub_clz.o(x$fpl$dadd) for __aeabi_dadd
    sin_i_x.o(i.____kernel_sin$lsc) refers to sin_i_x.o(.constdata) for .constdata
    sin_i_x.o(.constdata) refers (Special) to usenofp.o(x$fpl$usenofp) for __I$use$fp
    tan_i.o(i.__kernel_tan) refers (Special) to usenofp.o(x$fpl$usenofp) for __I$use$fp
    tan_i.o(i.__kernel_tan) refers to dfix.o(x$fpl$dfix) for __aeabi_d2iz
    tan_i.o(i.__kernel_tan) refers to basic.o(x$fpl$basic) for __aeabi_dneg
    tan_i.o(i.__kernel_tan) refers to daddsub_clz.o(x$fpl$drsb) for __aeabi_drsub
    tan_i.o(i.__kernel_tan) refers to daddsub_clz.o(x$fpl$dsub) for __aeabi_dsub
    tan_i.o(i.__kernel_tan) refers to daddsub_clz.o(x$fpl$dadd) for __aeabi_dadd
    tan_i.o(i.__kernel_tan) refers to dmul.o(x$fpl$dmul) for __aeabi_dmul
    tan_i.o(i.__kernel_tan) refers to poly.o(i.__kernel_poly) for __kernel_poly
    tan_i.o(i.__kernel_tan) refers to dflt_clz.o(x$fpl$dflt) for __aeabi_i2d
    tan_i.o(i.__kernel_tan) refers to ddiv.o(x$fpl$ddiv) for __aeabi_ddiv
    tan_i.o(i.__kernel_tan) refers to fabs.o(i.fabs) for fabs
    tan_i.o(i.__kernel_tan) refers to fpclassify.o(i.__ARM_fpclassify) for __ARM_fpclassify
    tan_i.o(i.__kernel_tan) refers to dunder.o(i.__mathlib_dbl_underflow) for __mathlib_dbl_underflow
    tan_i.o(i.__kernel_tan) refers to tan_i.o(.constdata) for .constdata
    tan_i.o(.constdata) refers (Special) to usenofp.o(x$fpl$usenofp) for __I$use$fp
    tan_i_x.o(i.____kernel_tan$lsc) refers (Special) to usenofp.o(x$fpl$usenofp) for __I$use$fp
    tan_i_x.o(i.____kernel_tan$lsc) refers to dfix.o(x$fpl$dfix) for __aeabi_d2iz
    tan_i_x.o(i.____kernel_tan$lsc) refers to basic.o(x$fpl$basic) for __aeabi_dneg
    tan_i_x.o(i.____kernel_tan$lsc) refers to daddsub_clz.o(x$fpl$drsb) for __aeabi_drsub
    tan_i_x.o(i.____kernel_tan$lsc) refers to daddsub_clz.o(x$fpl$dsub) for __aeabi_dsub
    tan_i_x.o(i.____kernel_tan$lsc) refers to daddsub_clz.o(x$fpl$dadd) for __aeabi_dadd
    tan_i_x.o(i.____kernel_tan$lsc) refers to dmul.o(x$fpl$dmul) for __aeabi_dmul
    tan_i_x.o(i.____kernel_tan$lsc) refers to poly.o(i.__kernel_poly) for __kernel_poly
    tan_i_x.o(i.____kernel_tan$lsc) refers to dflt_clz.o(x$fpl$dflt) for __aeabi_i2d
    tan_i_x.o(i.____kernel_tan$lsc) refers to ddiv.o(x$fpl$ddiv) for __aeabi_ddiv
    tan_i_x.o(i.____kernel_tan$lsc) refers to fabs.o(i.fabs) for fabs
    tan_i_x.o(i.____kernel_tan$lsc) refers to tan_i_x.o(.constdata) for .constdata
    tan_i_x.o(.constdata) refers (Special) to usenofp.o(x$fpl$usenofp) for __I$use$fp
    __rtentry2.o(.ARM.Collect$$rtentry$$00000008) refers to boardinit2.o(.text) for _platform_post_stackheap_init
    __rtentry2.o(.ARM.Collect$$rtentry$$0000000A) refers to libinit.o(.ARM.Collect$$libinit$$00000000) for __rt_lib_init
    __rtentry2.o(.ARM.Collect$$rtentry$$0000000B) refers to boardinit3.o(.text) for _platform_post_lib_init
    __rtentry2.o(.ARM.Collect$$rtentry$$0000000D) refers to main.o(.text) for main
    __rtentry2.o(.ARM.Collect$$rtentry$$0000000D) refers to exit.o(.text) for exit
    __rtentry2.o(.ARM.exidx) refers to __rtentry2.o(.ARM.Collect$$rtentry$$00000001) for .ARM.Collect$$rtentry$$00000001
    __rtentry2.o(.ARM.exidx) refers to __rtentry2.o(.ARM.Collect$$rtentry$$00000008) for .ARM.Collect$$rtentry$$00000008
    __rtentry2.o(.ARM.exidx) refers to __rtentry2.o(.ARM.Collect$$rtentry$$0000000A) for .ARM.Collect$$rtentry$$0000000A
    __rtentry2.o(.ARM.exidx) refers to __rtentry2.o(.ARM.Collect$$rtentry$$0000000B) for .ARM.Collect$$rtentry$$0000000B
    __rtentry2.o(.ARM.exidx) refers to __rtentry2.o(.ARM.Collect$$rtentry$$0000000D) for .ARM.Collect$$rtentry$$0000000D
    __rtentry4.o(.ARM.Collect$$rtentry$$00000004) refers to sys_stackheap_outer.o(.text) for __user_setup_stackheap
    __rtentry4.o(.ARM.exidx) refers to __rtentry4.o(.ARM.Collect$$rtentry$$00000004) for .ARM.Collect$$rtentry$$00000004
    rt_errno_addr.o(.text) refers to rt_errno_addr.o(.bss) for __aeabi_errno_addr_data
    rt_errno_addr_intlibspace.o(.text) refers to libspace.o(.bss) for __libspace_start
    dcheck1.o(x$fpl$dcheck1) refers (Special) to usenofp.o(x$fpl$usenofp) for __I$use$fp
    dcheck1.o(x$fpl$dcheck1) refers to retnan.o(x$fpl$retnan) for __fpl_return_NaN
    libspace.o(.text) refers to libspace.o(.bss) for __libspace_start
    sys_stackheap_outer.o(.text) refers to libspace.o(.text) for __user_perproc_libspace
    sys_stackheap_outer.o(.text) refers to startup_stm32f40_41xxx.o(.text) for __user_initial_stackheap
    exit.o(.text) refers to rtexit.o(.ARM.Collect$$rtexit$$00000000) for __rt_exit
    libinit.o(.ARM.Collect$$libinit$$00000000) refers (Special) to libinit2.o(.ARM.Collect$$libinit$$0000002E) for __rt_lib_init_alloca_1
    libinit.o(.ARM.Collect$$libinit$$00000000) refers (Special) to libinit2.o(.ARM.Collect$$libinit$$0000002C) for __rt_lib_init_argv_1
    libinit.o(.ARM.Collect$$libinit$$00000000) refers (Special) to libinit2.o(.ARM.Collect$$libinit$$0000001B) for __rt_lib_init_atexit_1
    libinit.o(.ARM.Collect$$libinit$$00000000) refers (Special) to libinit2.o(.ARM.Collect$$libinit$$00000021) for __rt_lib_init_clock_1
    libinit.o(.ARM.Collect$$libinit$$00000000) refers (Special) to libinit2.o(.ARM.Collect$$libinit$$00000032) for __rt_lib_init_cpp_1
    libinit.o(.ARM.Collect$$libinit$$00000000) refers (Special) to libinit2.o(.ARM.Collect$$libinit$$00000030) for __rt_lib_init_exceptions_1
    libinit.o(.ARM.Collect$$libinit$$00000000) refers (Special) to libinit2.o(.ARM.Collect$$libinit$$00000001) for __rt_lib_init_fp_1
    libinit.o(.ARM.Collect$$libinit$$00000000) refers (Special) to libinit2.o(.ARM.Collect$$libinit$$0000001F) for __rt_lib_init_fp_trap_1
    libinit.o(.ARM.Collect$$libinit$$00000000) refers (Special) to libinit2.o(.ARM.Collect$$libinit$$00000023) for __rt_lib_init_getenv_1
    libinit.o(.ARM.Collect$$libinit$$00000000) refers (Special) to libinit2.o(.ARM.Collect$$libinit$$0000000A) for __rt_lib_init_heap_1
    libinit.o(.ARM.Collect$$libinit$$00000000) refers (Special) to libinit2.o(.ARM.Collect$$libinit$$00000011) for __rt_lib_init_lc_collate_1
    libinit.o(.ARM.Collect$$libinit$$00000000) refers (Special) to libinit2.o(.ARM.Collect$$libinit$$00000013) for __rt_lib_init_lc_ctype_1
    libinit.o(.ARM.Collect$$libinit$$00000000) refers (Special) to libinit2.o(.ARM.Collect$$libinit$$00000015) for __rt_lib_init_lc_monetary_1
    libinit.o(.ARM.Collect$$libinit$$00000000) refers (Special) to libinit2.o(.ARM.Collect$$libinit$$00000017) for __rt_lib_init_lc_numeric_1
    libinit.o(.ARM.Collect$$libinit$$00000000) refers (Special) to libinit2.o(.ARM.Collect$$libinit$$00000019) for __rt_lib_init_lc_time_1
    libinit.o(.ARM.Collect$$libinit$$00000000) refers (Special) to libinit2.o(.ARM.Collect$$libinit$$00000004) for __rt_lib_init_preinit_1
    libinit.o(.ARM.Collect$$libinit$$00000000) refers (Special) to libinit2.o(.ARM.Collect$$libinit$$0000000E) for __rt_lib_init_rand_1
    libinit.o(.ARM.Collect$$libinit$$00000000) refers (Special) to libinit2.o(.ARM.Collect$$libinit$$00000033) for __rt_lib_init_return
    libinit.o(.ARM.Collect$$libinit$$00000000) refers (Special) to libinit2.o(.ARM.Collect$$libinit$$0000001D) for __rt_lib_init_signal_1
    libinit.o(.ARM.Collect$$libinit$$00000000) refers (Special) to libinit2.o(.ARM.Collect$$libinit$$00000025) for __rt_lib_init_stdio_1
    libinit.o(.ARM.Collect$$libinit$$00000000) refers (Special) to libinit2.o(.ARM.Collect$$libinit$$0000000C) for __rt_lib_init_user_alloc_1
    retnan.o(x$fpl$retnan) refers (Special) to usenofp.o(x$fpl$usenofp) for __I$use$fp
    retnan.o(x$fpl$retnan) refers to trapv.o(x$fpl$trapveneer) for __fpl_cmpreturn
    rtexit.o(.ARM.Collect$$rtexit$$00000000) refers (Special) to rtexit2.o(.ARM.Collect$$rtexit$$00000004) for __rt_exit_exit
    rtexit.o(.ARM.Collect$$rtexit$$00000000) refers (Special) to rtexit2.o(.ARM.Collect$$rtexit$$00000003) for __rt_exit_ls
    rtexit.o(.ARM.Collect$$rtexit$$00000000) refers (Special) to rtexit2.o(.ARM.Collect$$rtexit$$00000002) for __rt_exit_prels_1
    rtexit.o(.ARM.exidx) refers (Special) to rtexit2.o(.ARM.Collect$$rtexit$$00000004) for __rt_exit_exit
    rtexit.o(.ARM.exidx) refers (Special) to rtexit2.o(.ARM.Collect$$rtexit$$00000003) for __rt_exit_ls
    rtexit.o(.ARM.exidx) refers (Special) to rtexit2.o(.ARM.Collect$$rtexit$$00000002) for __rt_exit_prels_1
    rtexit.o(.ARM.exidx) refers to rtexit.o(.ARM.Collect$$rtexit$$00000000) for .ARM.Collect$$rtexit$$00000000
    libinit2.o(.ARM.Collect$$libinit$$00000001) refers to fpinit.o(x$fpl$fpinit) for _fp_init
    libinit2.o(.ARM.Collect$$libinit$$00000010) refers to libinit2.o(.ARM.Collect$$libinit$$0000000F) for .ARM.Collect$$libinit$$0000000F
    libinit2.o(.ARM.Collect$$libinit$$00000012) refers to libinit2.o(.ARM.Collect$$libinit$$0000000F) for .ARM.Collect$$libinit$$0000000F
    libinit2.o(.ARM.Collect$$libinit$$00000014) refers to libinit2.o(.ARM.Collect$$libinit$$0000000F) for .ARM.Collect$$libinit$$0000000F
    libinit2.o(.ARM.Collect$$libinit$$00000016) refers to libinit2.o(.ARM.Collect$$libinit$$0000000F) for .ARM.Collect$$libinit$$0000000F
    libinit2.o(.ARM.Collect$$libinit$$00000018) refers to libinit2.o(.ARM.Collect$$libinit$$0000000F) for .ARM.Collect$$libinit$$0000000F
    libinit2.o(.ARM.Collect$$libinit$$00000026) refers to argv_veneer.o(.emb_text) for __ARM_argv_veneer
    libinit2.o(.ARM.Collect$$libinit$$00000027) refers to argv_veneer.o(.emb_text) for __ARM_argv_veneer
    trapv.o(x$fpl$trapveneer) refers (Special) to usenofp.o(x$fpl$usenofp) for __I$use$fp
    rtexit2.o(.ARM.Collect$$rtexit$$00000003) refers to libshutdown.o(.ARM.Collect$$libshutdown$$00000000) for __rt_lib_shutdown
    rtexit2.o(.ARM.Collect$$rtexit$$00000004) refers to sys_exit.o(.text) for _sys_exit
    rtexit2.o(.ARM.exidx) refers to rtexit2.o(.ARM.Collect$$rtexit$$00000001) for .ARM.Collect$$rtexit$$00000001
    rtexit2.o(.ARM.exidx) refers to rtexit2.o(.ARM.Collect$$rtexit$$00000003) for .ARM.Collect$$rtexit$$00000003
    rtexit2.o(.ARM.exidx) refers to rtexit2.o(.ARM.Collect$$rtexit$$00000004) for .ARM.Collect$$rtexit$$00000004
    argv_veneer.o(.emb_text) refers to no_argv.o(.text) for __ARM_get_argv
    sys_exit.o(.text) refers (Special) to use_no_semi.o(.text) for __I$use$semihosting
    sys_exit.o(.text) refers (Special) to indicate_semi.o(.text) for __semihosting_library_function
    _get_argv_nomalloc.o(.text) refers (Special) to hrguard.o(.text) for __heap_region$guard
    _get_argv_nomalloc.o(.text) refers to defsig_rtmem_outer.o(.text) for __rt_SIGRTMEM
    _get_argv_nomalloc.o(.text) refers to sys_command.o(.text) for _sys_command_string
    libshutdown.o(.ARM.Collect$$libshutdown$$00000000) refers (Special) to libshutdown2.o(.ARM.Collect$$libshutdown$$00000002) for __rt_lib_shutdown_cpp_1
    libshutdown.o(.ARM.Collect$$libshutdown$$00000000) refers (Special) to libshutdown2.o(.ARM.Collect$$libshutdown$$00000007) for __rt_lib_shutdown_fp_trap_1
    libshutdown.o(.ARM.Collect$$libshutdown$$00000000) refers (Special) to libshutdown2.o(.ARM.Collect$$libshutdown$$0000000F) for __rt_lib_shutdown_heap_1
    libshutdown.o(.ARM.Collect$$libshutdown$$00000000) refers (Special) to libshutdown2.o(.ARM.Collect$$libshutdown$$00000010) for __rt_lib_shutdown_return
    libshutdown.o(.ARM.Collect$$libshutdown$$00000000) refers (Special) to libshutdown2.o(.ARM.Collect$$libshutdown$$0000000A) for __rt_lib_shutdown_signal_1
    libshutdown.o(.ARM.Collect$$libshutdown$$00000000) refers (Special) to libshutdown2.o(.ARM.Collect$$libshutdown$$00000004) for __rt_lib_shutdown_stdio_1
    libshutdown.o(.ARM.Collect$$libshutdown$$00000000) refers (Special) to libshutdown2.o(.ARM.Collect$$libshutdown$$0000000C) for __rt_lib_shutdown_user_alloc_1
    sys_command.o(.text) refers (Special) to use_no_semi.o(.text) for __I$use$semihosting
    sys_command.o(.text) refers (Special) to indicate_semi.o(.text) for __semihosting_library_function
    defsig_rtmem_outer.o(.text) refers to defsig_rtmem_inner.o(.text) for __rt_SIGRTMEM_inner
    defsig_rtmem_outer.o(.text) refers to defsig_exit.o(.text) for __sig_exit
    defsig_rtmem_formal.o(.text) refers to rt_raise.o(.text) for __rt_raise
    rt_raise.o(.text) refers to __raise.o(.text) for __raise
    rt_raise.o(.text) refers to sys_exit.o(.text) for _sys_exit
    defsig_exit.o(.text) refers to sys_exit.o(.text) for _sys_exit
    defsig_rtmem_inner.o(.text) refers to defsig_general.o(.text) for __default_signal_display
    __raise.o(.text) refers to defsig.o(CL$$defsig) for __default_signal_handler
    defsig_general.o(.text) refers to sys_wrch.o(.text) for _ttywrch
    sys_wrch.o(.text) refers (Special) to use_no_semi.o(.text) for __I$use$semihosting
    sys_wrch.o(.text) refers (Special) to indicate_semi.o(.text) for __semihosting_library_function
    defsig.o(CL$$defsig) refers to defsig_rtmem_inner.o(.text) for __rt_SIGRTMEM_inner
    defsig_abrt_inner.o(.text) refers to defsig_general.o(.text) for __default_signal_display
    defsig_fpe_inner.o(.text) refers to defsig_general.o(.text) for __default_signal_display
    defsig_rtred_inner.o(.text) refers to defsig_general.o(.text) for __default_signal_display
    defsig_stak_inner.o(.text) refers to defsig_general.o(.text) for __default_signal_display
    defsig_pvfn_inner.o(.text) refers to defsig_general.o(.text) for __default_signal_display
    defsig_cppl_inner.o(.text) refers to defsig_general.o(.text) for __default_signal_display
    defsig_segv_inner.o(.text) refers to defsig_general.o(.text) for __default_signal_display
    defsig_other.o(.text) refers to defsig_general.o(.text) for __default_signal_display


==============================================================================

Removing Unused input sections from the image.

    Removing ucos_task.o(.rev16_text), (4 bytes).
    Removing ucos_task.o(.revsh_text), (4 bytes).
    Removing main.o(.rev16_text), (4 bytes).
    Removing main.o(.revsh_text), (4 bytes).
    Removing stm32f4xx_it.o(.rev16_text), (4 bytes).
    Removing stm32f4xx_it.o(.revsh_text), (4 bytes).
    Removing system_stm32f4xx.o(.rev16_text), (4 bytes).
    Removing system_stm32f4xx.o(.revsh_text), (4 bytes).
    Removing delay.o(.rev16_text), (4 bytes).
    Removing delay.o(.revsh_text), (4 bytes).
    Removing sys.o(.rev16_text), (4 bytes).
    Removing sys.o(.revsh_text), (4 bytes).
    Removing sys.o(.emb_text), (16 bytes).
    Removing misc.o(.rev16_text), (4 bytes).
    Removing misc.o(.revsh_text), (4 bytes).
    Removing stm32f4xx_gpio.o(.rev16_text), (4 bytes).
    Removing stm32f4xx_gpio.o(.revsh_text), (4 bytes).
    Removing stm32f4xx_fsmc.o(.rev16_text), (4 bytes).
    Removing stm32f4xx_fsmc.o(.revsh_text), (4 bytes).
    Removing stm32f4xx_fsmc.o(.text), (1480 bytes).
    Removing stm32f4xx_fsmc.o(.constdata), (28 bytes).
    Removing stm32f4xx_rcc.o(.rev16_text), (4 bytes).
    Removing stm32f4xx_rcc.o(.revsh_text), (4 bytes).
    Removing stm32f4xx_syscfg.o(.rev16_text), (4 bytes).
    Removing stm32f4xx_syscfg.o(.revsh_text), (4 bytes).
    Removing stm32f4xx_syscfg.o(.text), (148 bytes).
    Removing stm32f4xx_usart.o(.rev16_text), (4 bytes).
    Removing stm32f4xx_usart.o(.revsh_text), (4 bytes).
    Removing stm32f4xx_tim.o(.rev16_text), (4 bytes).
    Removing stm32f4xx_tim.o(.revsh_text), (4 bytes).
    Removing stm32f4xx_flash.o(.rev16_text), (4 bytes).
    Removing stm32f4xx_flash.o(.revsh_text), (4 bytes).
    Removing stm32f4xx_exti.o(.rev16_text), (4 bytes).
    Removing stm32f4xx_exti.o(.revsh_text), (4 bytes).
    Removing stm32f4xx_exti.o(.text), (272 bytes).
    Removing stm32f4xx_pwr.o(.rev16_text), (4 bytes).
    Removing stm32f4xx_pwr.o(.revsh_text), (4 bytes).
    Removing stm32f4xx_pwr.o(.text), (364 bytes).
    Removing stm32f4xx_spi.o(.rev16_text), (4 bytes).
    Removing stm32f4xx_spi.o(.revsh_text), (4 bytes).
    Removing stm32f4xx_dma.o(.rev16_text), (4 bytes).
    Removing stm32f4xx_dma.o(.revsh_text), (4 bytes).
    Removing stm32f4xx_rng.o(.rev16_text), (4 bytes).
    Removing stm32f4xx_rng.o(.revsh_text), (4 bytes).
    Removing stm32f4xx_dac.o(.rev16_text), (4 bytes).
    Removing stm32f4xx_dac.o(.revsh_text), (4 bytes).
    Removing stm32f4xx_dac.o(.text), (528 bytes).
    Removing stm32f4xx_adc.o(.rev16_text), (4 bytes).
    Removing stm32f4xx_adc.o(.revsh_text), (4 bytes).
    Removing stm32f4xx_iwdg.o(.rev16_text), (4 bytes).
    Removing stm32f4xx_iwdg.o(.revsh_text), (4 bytes).
    Removing os_core.o(.rev16_text), (4 bytes).
    Removing os_core.o(.revsh_text), (4 bytes).
    Removing os_flag.o(.rev16_text), (4 bytes).
    Removing os_flag.o(.revsh_text), (4 bytes).
    Removing os_mbox.o(.rev16_text), (4 bytes).
    Removing os_mbox.o(.revsh_text), (4 bytes).
    Removing os_mem.o(.rev16_text), (4 bytes).
    Removing os_mem.o(.revsh_text), (4 bytes).
    Removing os_mutex.o(.rev16_text), (4 bytes).
    Removing os_mutex.o(.revsh_text), (4 bytes).
    Removing os_mutex.o(.text), (1536 bytes).
    Removing os_q.o(.rev16_text), (4 bytes).
    Removing os_q.o(.revsh_text), (4 bytes).
    Removing os_sem.o(.rev16_text), (4 bytes).
    Removing os_sem.o(.revsh_text), (4 bytes).
    Removing os_task.o(.rev16_text), (4 bytes).
    Removing os_task.o(.revsh_text), (4 bytes).
    Removing os_time.o(.rev16_text), (4 bytes).
    Removing os_time.o(.revsh_text), (4 bytes).
    Removing os_tmr.o(.rev16_text), (4 bytes).
    Removing os_tmr.o(.revsh_text), (4 bytes).
    Removing os_cpu_c.o(.rev16_text), (4 bytes).
    Removing os_cpu_c.o(.revsh_text), (4 bytes).
    Removing spi.o(.rev16_text), (4 bytes).
    Removing spi.o(.revsh_text), (4 bytes).
    Removing flash.o(.rev16_text), (4 bytes).
    Removing flash.o(.revsh_text), (4 bytes).
    Removing led_fc.o(.rev16_text), (4 bytes).
    Removing led_fc.o(.revsh_text), (4 bytes).
    Removing pwm_out.o(.rev16_text), (4 bytes).
    Removing pwm_out.o(.revsh_text), (4 bytes).
    Removing pwm_out.o(.bss), (136 bytes).
    Removing time.o(.rev16_text), (4 bytes).
    Removing time.o(.revsh_text), (4 bytes).
    Removing time.o(.data), (20 bytes).
    Removing dma.o(.rev16_text), (4 bytes).
    Removing dma.o(.revsh_text), (4 bytes).
    Removing dma.o(.text), (232 bytes).
    Removing rng.o(.rev16_text), (4 bytes).
    Removing rng.o(.revsh_text), (4 bytes).
    Removing bat.o(.rev16_text), (4 bytes).
    Removing bat.o(.revsh_text), (4 bytes).
    Removing beep.o(.rev16_text), (4 bytes).
    Removing beep.o(.revsh_text), (4 bytes).
    Removing watch_dog.o(.rev16_text), (4 bytes).
    Removing watch_dog.o(.revsh_text), (4 bytes).
    Removing nrf.o(.rev16_text), (4 bytes).
    Removing nrf.o(.revsh_text), (4 bytes).
    Removing pressure.o(.rev16_text), (4 bytes).
    Removing pressure.o(.revsh_text), (4 bytes).
    Removing pressure.o(.text), (828 bytes).
    Removing pressure.o(.data), (16 bytes).
    Removing flash_w25.o(.rev16_text), (4 bytes).
    Removing flash_w25.o(.revsh_text), (4 bytes).
    Removing iic_vl53.o(.rev16_text), (4 bytes).
    Removing iic_vl53.o(.revsh_text), (4 bytes).
    Removing vl6180x_i2c.o(.rev16_text), (4 bytes).
    Removing vl6180x_i2c.o(.revsh_text), (4 bytes).
    Removing vl6180x_i2c.o(.text), (912 bytes).
    Removing vl6180x_i2c.o(.data), (5 bytes).
    Removing usart_fc.o(.rev16_text), (4 bytes).
    Removing usart_fc.o(.revsh_text), (4 bytes).
    Removing rc_mine.o(.rev16_text), (4 bytes).
    Removing rc_mine.o(.revsh_text), (4 bytes).
    Removing mems.o(.rev16_text), (4 bytes).
    Removing mems.o(.revsh_text), (4 bytes).
    Removing icm20602.o(.rev16_text), (4 bytes).
    Removing icm20602.o(.revsh_text), (4 bytes).
    Removing imu.o(.rev16_text), (4 bytes).
    Removing imu.o(.revsh_text), (4 bytes).
    Removing ms5611.o(.rev16_text), (4 bytes).
    Removing ms5611.o(.revsh_text), (4 bytes).
    Removing vmc_demo.o(.rev16_text), (4 bytes).
    Removing vmc_demo.o(.revsh_text), (4 bytes).
    Removing vmc_sdk.o(.rev16_text), (4 bytes).
    Removing vmc_sdk.o(.revsh_text), (4 bytes).
    Removing eso.o(.rev16_text), (4 bytes).
    Removing eso.o(.revsh_text), (4 bytes).
    Removing eso.o(.text), (4876 bytes).
    Removing eso.o(.bss), (2016 bytes).
    Removing eso.o(.data), (64 bytes).
    Removing fliter.o(.rev16_text), (4 bytes).
    Removing fliter.o(.revsh_text), (4 bytes).
    Removing my_math.o(.rev16_text), (4 bytes).
    Removing my_math.o(.revsh_text), (4 bytes).
    Removing pose_fushion.o(.rev16_text), (4 bytes).
    Removing pose_fushion.o(.revsh_text), (4 bytes).
    Removing baro_fushion.o(.rev16_text), (4 bytes).
    Removing baro_fushion.o(.revsh_text), (4 bytes).
    Removing sbus.o(.emb_text), (8 bytes).
    Removing cycle_cal_oldx.o(.emb_text), (8 bytes).
    Removing vmc.o(.emb_text), (8 bytes).

143 unused section(s) (total 13989 bytes) removed from the image.

==============================================================================

Image Symbol Table

    Local Symbols

    Symbol Name                              Value     Ov Type        Size  Object(Section)

    ../clib/angel/boardlib.s                 0x00000000   Number         0  boardshut.o ABSOLUTE
    ../clib/angel/boardlib.s                 0x00000000   Number         0  boardinit3.o ABSOLUTE
    ../clib/angel/boardlib.s                 0x00000000   Number         0  boardinit2.o ABSOLUTE
    ../clib/angel/boardlib.s                 0x00000000   Number         0  boardinit1.o ABSOLUTE
    ../clib/angel/dczerorl2.s                0x00000000   Number         0  __dczerorl2.o ABSOLUTE
    ../clib/angel/handlers.s                 0x00000000   Number         0  __scatter_zi.o ABSOLUTE
    ../clib/angel/kernel.s                   0x00000000   Number         0  __rtentry2.o ABSOLUTE
    ../clib/angel/kernel.s                   0x00000000   Number         0  rtexit2.o ABSOLUTE
    ../clib/angel/kernel.s                   0x00000000   Number         0  rtexit.o ABSOLUTE
    ../clib/angel/kernel.s                   0x00000000   Number         0  __rtentry.o ABSOLUTE
    ../clib/angel/kernel.s                   0x00000000   Number         0  __rtentry4.o ABSOLUTE
    ../clib/angel/rt.s                       0x00000000   Number         0  rt_errno_addr_intlibspace.o ABSOLUTE
    ../clib/angel/rt.s                       0x00000000   Number         0  rt_errno_addr.o ABSOLUTE
    ../clib/angel/rt.s                       0x00000000   Number         0  rt_raise.o ABSOLUTE
    ../clib/angel/scatter.s                  0x00000000   Number         0  __scatter.o ABSOLUTE
    ../clib/angel/startup.s                  0x00000000   Number         0  __main.o ABSOLUTE
    ../clib/angel/sys.s                      0x00000000   Number         0  use_no_semi.o ABSOLUTE
    ../clib/angel/sys.s                      0x00000000   Number         0  sys_stackheap_outer.o ABSOLUTE
    ../clib/angel/sys.s                      0x00000000   Number         0  libspace.o ABSOLUTE
    ../clib/angel/sys.s                      0x00000000   Number         0  indicate_semi.o ABSOLUTE
    ../clib/angel/sysapp.c                   0x00000000   Number         0  sys_command.o ABSOLUTE
    ../clib/angel/sysapp.c                   0x00000000   Number         0  sys_exit.o ABSOLUTE
    ../clib/angel/sysapp.c                   0x00000000   Number         0  sys_wrch.o ABSOLUTE
    ../clib/armsys.c                         0x00000000   Number         0  no_argv.o ABSOLUTE
    ../clib/armsys.c                         0x00000000   Number         0  argv_veneer.o ABSOLUTE
    ../clib/armsys.c                         0x00000000   Number         0  argv_veneer.o ABSOLUTE
    ../clib/armsys.c                         0x00000000   Number         0  _get_argv_nomalloc.o ABSOLUTE
    ../clib/fenv.c                           0x00000000   Number         0  _rserrno.o ABSOLUTE
    ../clib/heapalloc.c                      0x00000000   Number         0  hrguard.o ABSOLUTE
    ../clib/heapaux.c                        0x00000000   Number         0  heapauxi.o ABSOLUTE
    ../clib/libinit.s                        0x00000000   Number         0  libinit.o ABSOLUTE
    ../clib/libinit.s                        0x00000000   Number         0  libinit2.o ABSOLUTE
    ../clib/libinit.s                        0x00000000   Number         0  libshutdown2.o ABSOLUTE
    ../clib/libinit.s                        0x00000000   Number         0  libshutdown.o ABSOLUTE
    ../clib/memcpset.s                       0x00000000   Number         0  rt_memcpy_w.o ABSOLUTE
    ../clib/memcpset.s                       0x00000000   Number         0  rt_memclr_w.o ABSOLUTE
    ../clib/signal.c                         0x00000000   Number         0  __raise.o ABSOLUTE
    ../clib/signal.c                         0x00000000   Number         0  defsig_other.o ABSOLUTE
    ../clib/signal.c                         0x00000000   Number         0  defsig_abrt_inner.o ABSOLUTE
    ../clib/signal.c                         0x00000000   Number         0  defsig_segv_inner.o ABSOLUTE
    ../clib/signal.c                         0x00000000   Number         0  defsig_cppl_inner.o ABSOLUTE
    ../clib/signal.c                         0x00000000   Number         0  defsig_pvfn_inner.o ABSOLUTE
    ../clib/signal.c                         0x00000000   Number         0  defsig_rtmem_outer.o ABSOLUTE
    ../clib/signal.c                         0x00000000   Number         0  defsig_rtmem_formal.o ABSOLUTE
    ../clib/signal.c                         0x00000000   Number         0  defsig_stak_inner.o ABSOLUTE
    ../clib/signal.c                         0x00000000   Number         0  defsig_rtred_inner.o ABSOLUTE
    ../clib/signal.c                         0x00000000   Number         0  defsig_exit.o ABSOLUTE
    ../clib/signal.c                         0x00000000   Number         0  defsig_rtmem_inner.o ABSOLUTE
    ../clib/signal.c                         0x00000000   Number         0  defsig_general.o ABSOLUTE
    ../clib/signal.c                         0x00000000   Number         0  defsig_fpe_inner.o ABSOLUTE
    ../clib/signal.s                         0x00000000   Number         0  defsig.o ABSOLUTE
    ../clib/stdlib.c                         0x00000000   Number         0  exit.o ABSOLUTE
    ../fplib/basic.s                         0x00000000   Number         0  basic.o ABSOLUTE
    ../fplib/d2f.s                           0x00000000   Number         0  d2f.o ABSOLUTE
    ../fplib/daddsub.s                       0x00000000   Number         0  daddsub_clz.o ABSOLUTE
    ../fplib/dcheck1.s                       0x00000000   Number         0  dcheck1.o ABSOLUTE
    ../fplib/dcmpi.s                         0x00000000   Number         0  dcmpi.o ABSOLUTE
    ../fplib/ddiv.s                          0x00000000   Number         0  ddiv.o ABSOLUTE
    ../fplib/deqf.s                          0x00000000   Number         0  deqf.o ABSOLUTE
    ../fplib/dfix.s                          0x00000000   Number         0  dfix.o ABSOLUTE
    ../fplib/dfixu.s                         0x00000000   Number         0  dfixu.o ABSOLUTE
    ../fplib/dflt.s                          0x00000000   Number         0  dflt_clz.o ABSOLUTE
    ../fplib/dleqf.s                         0x00000000   Number         0  dleqf.o ABSOLUTE
    ../fplib/dmul.s                          0x00000000   Number         0  dmul.o ABSOLUTE
    ../fplib/dnaninf.s                       0x00000000   Number         0  dnaninf.o ABSOLUTE
    ../fplib/dretinf.s                       0x00000000   Number         0  dretinf.o ABSOLUTE
    ../fplib/drleqf.s                        0x00000000   Number         0  drleqf.o ABSOLUTE
    ../fplib/dsqrt.s                         0x00000000   Number         0  dsqrt_umaal.o ABSOLUTE
    ../fplib/f2d.s                           0x00000000   Number         0  f2d.o ABSOLUTE
    ../fplib/fnaninf.s                       0x00000000   Number         0  fnaninf.o ABSOLUTE
    ../fplib/fpinit.s                        0x00000000   Number         0  fpinit.o ABSOLUTE
    ../fplib/fretinf.s                       0x00000000   Number         0  fretinf.o ABSOLUTE
    ../fplib/retnan.s                        0x00000000   Number         0  retnan.o ABSOLUTE
    ../fplib/scalbn.s                        0x00000000   Number         0  scalbn.o ABSOLUTE
    ../fplib/trapv.s                         0x00000000   Number         0  trapv.o ABSOLUTE
    ../fplib/usenofp.s                       0x00000000   Number         0  usenofp.o ABSOLUTE
    ../mathlib/acos.c                        0x00000000   Number         0  acos.o ABSOLUTE
    ../mathlib/acos.c                        0x00000000   Number         0  acos_x.o ABSOLUTE
    ../mathlib/asin.c                        0x00000000   Number         0  asin.o ABSOLUTE
    ../mathlib/asin.c                        0x00000000   Number         0  asin_x.o ABSOLUTE
    ../mathlib/atan.c                        0x00000000   Number         0  atan_x.o ABSOLUTE
    ../mathlib/atan.c                        0x00000000   Number         0  atan.o ABSOLUTE
    ../mathlib/atan2.c                       0x00000000   Number         0  atan2_x.o ABSOLUTE
    ../mathlib/atan2.c                       0x00000000   Number         0  atan2.o ABSOLUTE
    ../mathlib/atan2f.c                      0x00000000   Number         0  atan2f.o ABSOLUTE
    ../mathlib/atan2f.c                      0x00000000   Number         0  atan2f_x.o ABSOLUTE
    ../mathlib/cos.c                         0x00000000   Number         0  cos_x.o ABSOLUTE
    ../mathlib/cos.c                         0x00000000   Number         0  cos.o ABSOLUTE
    ../mathlib/cos_i.c                       0x00000000   Number         0  cos_i.o ABSOLUTE
    ../mathlib/cosf.c                        0x00000000   Number         0  cosf_x.o ABSOLUTE
    ../mathlib/cosf.c                        0x00000000   Number         0  cosf.o ABSOLUTE
    ../mathlib/dunder.c                      0x00000000   Number         0  dunder.o ABSOLUTE
    ../mathlib/fabs.c                        0x00000000   Number         0  fabs.o ABSOLUTE
    ../mathlib/fpclassify.c                  0x00000000   Number         0  fpclassify.o ABSOLUTE
    ../mathlib/fpclassifyf.c                 0x00000000   Number         0  fpclassifyf.o ABSOLUTE
    ../mathlib/funder.c                      0x00000000   Number         0  funder.o ABSOLUTE
    ../mathlib/poly.c                        0x00000000   Number         0  poly.o ABSOLUTE
    ../mathlib/pow.c                         0x00000000   Number         0  pow.o ABSOLUTE
    ../mathlib/pow.c                         0x00000000   Number         0  pow_x.o ABSOLUTE
    ../mathlib/qnan.c                        0x00000000   Number         0  qnan.o ABSOLUTE
    ../mathlib/rred.c                        0x00000000   Number         0  rred.o ABSOLUTE
    ../mathlib/rredf.c                       0x00000000   Number         0  rredf.o ABSOLUTE
    ../mathlib/sin.c                         0x00000000   Number         0  sin.o ABSOLUTE
    ../mathlib/sin.c                         0x00000000   Number         0  sin_x.o ABSOLUTE
    ../mathlib/sin_i.c                       0x00000000   Number         0  sin_i.o ABSOLUTE
    ../mathlib/sin_i.c                       0x00000000   Number         0  sin_i_x.o ABSOLUTE
    ../mathlib/sinf.c                        0x00000000   Number         0  sinf.o ABSOLUTE
    ../mathlib/sinf.c                        0x00000000   Number         0  sinf_x.o ABSOLUTE
    ../mathlib/sqrt.c                        0x00000000   Number         0  sqrt_x.o ABSOLUTE
    ../mathlib/sqrt.c                        0x00000000   Number         0  sqrt.o ABSOLUTE
    ../mathlib/tan.c                         0x00000000   Number         0  tan.o ABSOLUTE
    ../mathlib/tan.c                         0x00000000   Number         0  tan_x.o ABSOLUTE
    ../mathlib/tan_i.c                       0x00000000   Number         0  tan_i.o ABSOLUTE
    ../mathlib/tan_i.c                       0x00000000   Number         0  tan_i_x.o ABSOLUTE
    ..\CORE\startup_stm32f40_41xxx.s         0x00000000   Number         0  startup_stm32f40_41xxx.o ABSOLUTE
    ..\FWLIB\src\misc.c                      0x00000000   Number         0  misc.o ABSOLUTE
    ..\FWLIB\src\stm32f4xx_adc.c             0x00000000   Number         0  stm32f4xx_adc.o ABSOLUTE
    ..\FWLIB\src\stm32f4xx_dac.c             0x00000000   Number         0  stm32f4xx_dac.o ABSOLUTE
    ..\FWLIB\src\stm32f4xx_dma.c             0x00000000   Number         0  stm32f4xx_dma.o ABSOLUTE
    ..\FWLIB\src\stm32f4xx_exti.c            0x00000000   Number         0  stm32f4xx_exti.o ABSOLUTE
    ..\FWLIB\src\stm32f4xx_flash.c           0x00000000   Number         0  stm32f4xx_flash.o ABSOLUTE
    ..\FWLIB\src\stm32f4xx_fsmc.c            0x00000000   Number         0  stm32f4xx_fsmc.o ABSOLUTE
    ..\FWLIB\src\stm32f4xx_gpio.c            0x00000000   Number         0  stm32f4xx_gpio.o ABSOLUTE
    ..\FWLIB\src\stm32f4xx_iwdg.c            0x00000000   Number         0  stm32f4xx_iwdg.o ABSOLUTE
    ..\FWLIB\src\stm32f4xx_pwr.c             0x00000000   Number         0  stm32f4xx_pwr.o ABSOLUTE
    ..\FWLIB\src\stm32f4xx_rcc.c             0x00000000   Number         0  stm32f4xx_rcc.o ABSOLUTE
    ..\FWLIB\src\stm32f4xx_rng.c             0x00000000   Number         0  stm32f4xx_rng.o ABSOLUTE
    ..\FWLIB\src\stm32f4xx_spi.c             0x00000000   Number         0  stm32f4xx_spi.o ABSOLUTE
    ..\FWLIB\src\stm32f4xx_syscfg.c          0x00000000   Number         0  stm32f4xx_syscfg.o ABSOLUTE
    ..\FWLIB\src\stm32f4xx_tim.c             0x00000000   Number         0  stm32f4xx_tim.o ABSOLUTE
    ..\FWLIB\src\stm32f4xx_usart.c           0x00000000   Number         0  stm32f4xx_usart.o ABSOLUTE
    ..\HARDWARE\IIC\bat.c                    0x00000000   Number         0  bat.o ABSOLUTE
    ..\HARDWARE\IIC\beep.c                   0x00000000   Number         0  beep.o ABSOLUTE
    ..\HARDWARE\IIC\dma.c                    0x00000000   Number         0  dma.o ABSOLUTE
    ..\HARDWARE\IIC\eso.c                    0x00000000   Number         0  eso.o ABSOLUTE
    ..\HARDWARE\IIC\flash.c                  0x00000000   Number         0  flash.o ABSOLUTE
    ..\HARDWARE\IIC\flash_w25.c              0x00000000   Number         0  flash_w25.o ABSOLUTE
    ..\HARDWARE\IIC\fliter.c                 0x00000000   Number         0  fliter.o ABSOLUTE
    ..\HARDWARE\IIC\icm20602.c               0x00000000   Number         0  icm20602.o ABSOLUTE
    ..\HARDWARE\IIC\iic_vl53.c               0x00000000   Number         0  iic_vl53.o ABSOLUTE
    ..\HARDWARE\IIC\imu.c                    0x00000000   Number         0  imu.o ABSOLUTE
    ..\HARDWARE\IIC\led_fc.c                 0x00000000   Number         0  led_fc.o ABSOLUTE
    ..\HARDWARE\IIC\mems.c                   0x00000000   Number         0  mems.o ABSOLUTE
    ..\HARDWARE\IIC\ms5611.c                 0x00000000   Number         0  ms5611.o ABSOLUTE
    ..\HARDWARE\IIC\my_math.c                0x00000000   Number         0  my_math.o ABSOLUTE
    ..\HARDWARE\IIC\nrf.c                    0x00000000   Number         0  nrf.o ABSOLUTE
    ..\HARDWARE\IIC\pressure.c               0x00000000   Number         0  pressure.o ABSOLUTE
    ..\HARDWARE\IIC\pwm_out.c                0x00000000   Number         0  pwm_out.o ABSOLUTE
    ..\HARDWARE\IIC\rc_mine.c                0x00000000   Number         0  rc_mine.o ABSOLUTE
    ..\HARDWARE\IIC\rng.c                    0x00000000   Number         0  rng.o ABSOLUTE
    ..\HARDWARE\IIC\spi.c                    0x00000000   Number         0  spi.o ABSOLUTE
    ..\HARDWARE\IIC\time.c                   0x00000000   Number         0  time.o ABSOLUTE
    ..\HARDWARE\IIC\ucos_task.c              0x00000000   Number         0  ucos_task.o ABSOLUTE
    ..\HARDWARE\IIC\usart_fc.c               0x00000000   Number         0  usart_fc.o ABSOLUTE
    ..\HARDWARE\IIC\vl6180x_i2c.c            0x00000000   Number         0  vl6180x_i2c.o ABSOLUTE
    ..\HARDWARE\IIC\vmc_demo.c               0x00000000   Number         0  vmc_demo.o ABSOLUTE
    ..\HARDWARE\IIC\vmc_sdk.c                0x00000000   Number         0  vmc_sdk.o ABSOLUTE
    ..\HARDWARE\IIC\watch_dog.c              0x00000000   Number         0  watch_dog.o ABSOLUTE
    ..\HARDWARE\NAV2\baro_fushion.c          0x00000000   Number         0  baro_fushion.o ABSOLUTE
    ..\HARDWARE\NAV2\baro_kf.c               0x00000000   Number         0  baro_kf.o ABSOLUTE
    ..\HARDWARE\NAV2\pose_fushion.c          0x00000000   Number         0  pose_fushion.o ABSOLUTE
    ..\HARDWARE\NAV2\pose_kf.c               0x00000000   Number         0  pose_kf.o ABSOLUTE
    ..\HARDWARE\NAV2\rtGetInf.c              0x00000000   Number         0  rtgetinf.o ABSOLUTE
    ..\HARDWARE\NAV2\rtGetNaN.c              0x00000000   Number         0  rtgetnan.o ABSOLUTE
    ..\HARDWARE\NAV2\rt_nonfinite.c          0x00000000   Number         0  rt_nonfinite.o ABSOLUTE
    ..\SYSTEM\delay\delay.c                  0x00000000   Number         0  delay.o ABSOLUTE
    ..\SYSTEM\sys\sys.c                      0x00000000   Number         0  sys.o ABSOLUTE
    ..\UCOSII\CORE\os_core.c                 0x00000000   Number         0  os_core.o ABSOLUTE
    ..\UCOSII\CORE\os_flag.c                 0x00000000   Number         0  os_flag.o ABSOLUTE
    ..\UCOSII\CORE\os_mbox.c                 0x00000000   Number         0  os_mbox.o ABSOLUTE
    ..\UCOSII\CORE\os_mem.c                  0x00000000   Number         0  os_mem.o ABSOLUTE
    ..\UCOSII\CORE\os_mutex.c                0x00000000   Number         0  os_mutex.o ABSOLUTE
    ..\UCOSII\CORE\os_q.c                    0x00000000   Number         0  os_q.o ABSOLUTE
    ..\UCOSII\CORE\os_sem.c                  0x00000000   Number         0  os_sem.o ABSOLUTE
    ..\UCOSII\CORE\os_task.c                 0x00000000   Number         0  os_task.o ABSOLUTE
    ..\UCOSII\CORE\os_time.c                 0x00000000   Number         0  os_time.o ABSOLUTE
    ..\UCOSII\CORE\os_tmr.c                  0x00000000   Number         0  os_tmr.o ABSOLUTE
    ..\UCOSII\PORT\os_cpu_a.asm              0x00000000   Number         0  os_cpu_a.o ABSOLUTE
    ..\UCOSII\PORT\os_cpu_c.c                0x00000000   Number         0  os_cpu_c.o ABSOLUTE
    ..\\FWLIB\\src\\misc.c                   0x00000000   Number         0  misc.o ABSOLUTE
    ..\\FWLIB\\src\\stm32f4xx_adc.c          0x00000000   Number         0  stm32f4xx_adc.o ABSOLUTE
    ..\\FWLIB\\src\\stm32f4xx_dac.c          0x00000000   Number         0  stm32f4xx_dac.o ABSOLUTE
    ..\\FWLIB\\src\\stm32f4xx_dma.c          0x00000000   Number         0  stm32f4xx_dma.o ABSOLUTE
    ..\\FWLIB\\src\\stm32f4xx_exti.c         0x00000000   Number         0  stm32f4xx_exti.o ABSOLUTE
    ..\\FWLIB\\src\\stm32f4xx_flash.c        0x00000000   Number         0  stm32f4xx_flash.o ABSOLUTE
    ..\\FWLIB\\src\\stm32f4xx_fsmc.c         0x00000000   Number         0  stm32f4xx_fsmc.o ABSOLUTE
    ..\\FWLIB\\src\\stm32f4xx_gpio.c         0x00000000   Number         0  stm32f4xx_gpio.o ABSOLUTE
    ..\\FWLIB\\src\\stm32f4xx_iwdg.c         0x00000000   Number         0  stm32f4xx_iwdg.o ABSOLUTE
    ..\\FWLIB\\src\\stm32f4xx_pwr.c          0x00000000   Number         0  stm32f4xx_pwr.o ABSOLUTE
    ..\\FWLIB\\src\\stm32f4xx_rcc.c          0x00000000   Number         0  stm32f4xx_rcc.o ABSOLUTE
    ..\\FWLIB\\src\\stm32f4xx_rng.c          0x00000000   Number         0  stm32f4xx_rng.o ABSOLUTE
    ..\\FWLIB\\src\\stm32f4xx_spi.c          0x00000000   Number         0  stm32f4xx_spi.o ABSOLUTE
    ..\\FWLIB\\src\\stm32f4xx_syscfg.c       0x00000000   Number         0  stm32f4xx_syscfg.o ABSOLUTE
    ..\\FWLIB\\src\\stm32f4xx_tim.c          0x00000000   Number         0  stm32f4xx_tim.o ABSOLUTE
    ..\\FWLIB\\src\\stm32f4xx_usart.c        0x00000000   Number         0  stm32f4xx_usart.o ABSOLUTE
    ..\\HARDWARE\\IIC\\bat.c                 0x00000000   Number         0  bat.o ABSOLUTE
    ..\\HARDWARE\\IIC\\beep.c                0x00000000   Number         0  beep.o ABSOLUTE
    ..\\HARDWARE\\IIC\\dma.c                 0x00000000   Number         0  dma.o ABSOLUTE
    ..\\HARDWARE\\IIC\\eso.c                 0x00000000   Number         0  eso.o ABSOLUTE
    ..\\HARDWARE\\IIC\\flash.c               0x00000000   Number         0  flash.o ABSOLUTE
    ..\\HARDWARE\\IIC\\flash_w25.c           0x00000000   Number         0  flash_w25.o ABSOLUTE
    ..\\HARDWARE\\IIC\\fliter.c              0x00000000   Number         0  fliter.o ABSOLUTE
    ..\\HARDWARE\\IIC\\icm20602.c            0x00000000   Number         0  icm20602.o ABSOLUTE
    ..\\HARDWARE\\IIC\\iic_vl53.c            0x00000000   Number         0  iic_vl53.o ABSOLUTE
    ..\\HARDWARE\\IIC\\imu.c                 0x00000000   Number         0  imu.o ABSOLUTE
    ..\\HARDWARE\\IIC\\led_fc.c              0x00000000   Number         0  led_fc.o ABSOLUTE
    ..\\HARDWARE\\IIC\\mems.c                0x00000000   Number         0  mems.o ABSOLUTE
    ..\\HARDWARE\\IIC\\ms5611.c              0x00000000   Number         0  ms5611.o ABSOLUTE
    ..\\HARDWARE\\IIC\\my_math.c             0x00000000   Number         0  my_math.o ABSOLUTE
    ..\\HARDWARE\\IIC\\nrf.c                 0x00000000   Number         0  nrf.o ABSOLUTE
    ..\\HARDWARE\\IIC\\pressure.c            0x00000000   Number         0  pressure.o ABSOLUTE
    ..\\HARDWARE\\IIC\\pwm_out.c             0x00000000   Number         0  pwm_out.o ABSOLUTE
    ..\\HARDWARE\\IIC\\rc_mine.c             0x00000000   Number         0  rc_mine.o ABSOLUTE
    ..\\HARDWARE\\IIC\\rng.c                 0x00000000   Number         0  rng.o ABSOLUTE
    ..\\HARDWARE\\IIC\\spi.c                 0x00000000   Number         0  spi.o ABSOLUTE
    ..\\HARDWARE\\IIC\\time.c                0x00000000   Number         0  time.o ABSOLUTE
    ..\\HARDWARE\\IIC\\ucos_task.c           0x00000000   Number         0  ucos_task.o ABSOLUTE
    ..\\HARDWARE\\IIC\\usart_fc.c            0x00000000   Number         0  usart_fc.o ABSOLUTE
    ..\\HARDWARE\\IIC\\vl6180x_i2c.c         0x00000000   Number         0  vl6180x_i2c.o ABSOLUTE
    ..\\HARDWARE\\IIC\\vmc_demo.c            0x00000000   Number         0  vmc_demo.o ABSOLUTE
    ..\\HARDWARE\\IIC\\vmc_sdk.c             0x00000000   Number         0  vmc_sdk.o ABSOLUTE
    ..\\HARDWARE\\IIC\\watch_dog.c           0x00000000   Number         0  watch_dog.o ABSOLUTE
    ..\\HARDWARE\\NAV2\\baro_fushion.c       0x00000000   Number         0  baro_fushion.o ABSOLUTE
    ..\\HARDWARE\\NAV2\\pose_fushion.c       0x00000000   Number         0  pose_fushion.o ABSOLUTE
    ..\\SYSTEM\\delay\\delay.c               0x00000000   Number         0  delay.o ABSOLUTE
    ..\\SYSTEM\\sys\\sys.c                   0x00000000   Number         0  sys.o ABSOLUTE
    ..\\UCOSII\\CORE\\os_core.c              0x00000000   Number         0  os_core.o ABSOLUTE
    ..\\UCOSII\\CORE\\os_flag.c              0x00000000   Number         0  os_flag.o ABSOLUTE
    ..\\UCOSII\\CORE\\os_mbox.c              0x00000000   Number         0  os_mbox.o ABSOLUTE
    ..\\UCOSII\\CORE\\os_mem.c               0x00000000   Number         0  os_mem.o ABSOLUTE
    ..\\UCOSII\\CORE\\os_mutex.c             0x00000000   Number         0  os_mutex.o ABSOLUTE
    ..\\UCOSII\\CORE\\os_q.c                 0x00000000   Number         0  os_q.o ABSOLUTE
    ..\\UCOSII\\CORE\\os_sem.c               0x00000000   Number         0  os_sem.o ABSOLUTE
    ..\\UCOSII\\CORE\\os_task.c              0x00000000   Number         0  os_task.o ABSOLUTE
    ..\\UCOSII\\CORE\\os_time.c              0x00000000   Number         0  os_time.o ABSOLUTE
    ..\\UCOSII\\CORE\\os_tmr.c               0x00000000   Number         0  os_tmr.o ABSOLUTE
    ..\\UCOSII\\PORT\\os_cpu_c.c             0x00000000   Number         0  os_cpu_c.o ABSOLUTE
    applications\\cycle_cal_oldx.c           0x00000000   Number         0  cycle_cal_oldx.o ABSOLUTE
    applications\\vmc.c                      0x00000000   Number         0  vmc.o ABSOLUTE
    applications\cycle_cal_oldx.c            0x00000000   Number         0  cycle_cal_oldx.o ABSOLUTE
    applications\vmc.c                       0x00000000   Number         0  vmc.o ABSOLUTE
    dc.s                                     0x00000000   Number         0  dc.o ABSOLUTE
    drivers\\sbus.c                          0x00000000   Number         0  sbus.o ABSOLUTE
    drivers\sbus.c                           0x00000000   Number         0  sbus.o ABSOLUTE
    main.c                                   0x00000000   Number         0  main.o ABSOLUTE
    main.c                                   0x00000000   Number         0  main.o ABSOLUTE
    stm32f4xx_it.c                           0x00000000   Number         0  stm32f4xx_it.o ABSOLUTE
    stm32f4xx_it.c                           0x00000000   Number         0  stm32f4xx_it.o ABSOLUTE
    system_stm32f4xx.c                       0x00000000   Number         0  system_stm32f4xx.o ABSOLUTE
    system_stm32f4xx.c                       0x00000000   Number         0  system_stm32f4xx.o ABSOLUTE
    RESET                                    0x08000000   Section      392  startup_stm32f40_41xxx.o(RESET)
    !!!main                                  0x08000188   Section        8  __main.o(!!!main)
    !!!scatter                               0x08000190   Section       52  __scatter.o(!!!scatter)
    !!dczerorl2                              0x080001c4   Section       90  __dczerorl2.o(!!dczerorl2)
    !!handler_zi                             0x08000220   Section       28  __scatter_zi.o(!!handler_zi)
    .ARM.Collect$$libinit$$00000000          0x0800023c   Section        2  libinit.o(.ARM.Collect$$libinit$$00000000)
    .ARM.Collect$$libinit$$00000001          0x0800023e   Section        4  libinit2.o(.ARM.Collect$$libinit$$00000001)
    .ARM.Collect$$libinit$$00000004          0x08000242   Section        0  libinit2.o(.ARM.Collect$$libinit$$00000004)
    .ARM.Collect$$libinit$$0000000A          0x08000242   Section        0  libinit2.o(.ARM.Collect$$libinit$$0000000A)
    .ARM.Collect$$libinit$$0000000C          0x08000242   Section        0  libinit2.o(.ARM.Collect$$libinit$$0000000C)
    .ARM.Collect$$libinit$$0000000E          0x08000242   Section        0  libinit2.o(.ARM.Collect$$libinit$$0000000E)
    .ARM.Collect$$libinit$$00000011          0x08000242   Section        0  libinit2.o(.ARM.Collect$$libinit$$00000011)
    .ARM.Collect$$libinit$$00000013          0x08000242   Section        0  libinit2.o(.ARM.Collect$$libinit$$00000013)
    .ARM.Collect$$libinit$$00000015          0x08000242   Section        0  libinit2.o(.ARM.Collect$$libinit$$00000015)
    .ARM.Collect$$libinit$$00000017          0x08000242   Section        0  libinit2.o(.ARM.Collect$$libinit$$00000017)
    .ARM.Collect$$libinit$$00000019          0x08000242   Section        0  libinit2.o(.ARM.Collect$$libinit$$00000019)
    .ARM.Collect$$libinit$$0000001B          0x08000242   Section        0  libinit2.o(.ARM.Collect$$libinit$$0000001B)
    .ARM.Collect$$libinit$$0000001D          0x08000242   Section        0  libinit2.o(.ARM.Collect$$libinit$$0000001D)
    .ARM.Collect$$libinit$$0000001F          0x08000242   Section        0  libinit2.o(.ARM.Collect$$libinit$$0000001F)
    .ARM.Collect$$libinit$$00000021          0x08000242   Section        0  libinit2.o(.ARM.Collect$$libinit$$00000021)
    .ARM.Collect$$libinit$$00000023          0x08000242   Section        0  libinit2.o(.ARM.Collect$$libinit$$00000023)
    .ARM.Collect$$libinit$$00000025          0x08000242   Section        0  libinit2.o(.ARM.Collect$$libinit$$00000025)
    .ARM.Collect$$libinit$$0000002C          0x08000242   Section        0  libinit2.o(.ARM.Collect$$libinit$$0000002C)
    .ARM.Collect$$libinit$$0000002E          0x08000242   Section        0  libinit2.o(.ARM.Collect$$libinit$$0000002E)
    .ARM.Collect$$libinit$$00000030          0x08000242   Section        0  libinit2.o(.ARM.Collect$$libinit$$00000030)
    .ARM.Collect$$libinit$$00000032          0x08000242   Section        0  libinit2.o(.ARM.Collect$$libinit$$00000032)
    .ARM.Collect$$libinit$$00000033          0x08000242   Section        2  libinit2.o(.ARM.Collect$$libinit$$00000033)
    .ARM.Collect$$libshutdown$$00000000      0x08000244   Section        2  libshutdown.o(.ARM.Collect$$libshutdown$$00000000)
    .ARM.Collect$$libshutdown$$00000002      0x08000246   Section        0  libshutdown2.o(.ARM.Collect$$libshutdown$$00000002)
    .ARM.Collect$$libshutdown$$00000004      0x08000246   Section        0  libshutdown2.o(.ARM.Collect$$libshutdown$$00000004)
    .ARM.Collect$$libshutdown$$00000007      0x08000246   Section        0  libshutdown2.o(.ARM.Collect$$libshutdown$$00000007)
    .ARM.Collect$$libshutdown$$0000000A      0x08000246   Section        0  libshutdown2.o(.ARM.Collect$$libshutdown$$0000000A)
    .ARM.Collect$$libshutdown$$0000000C      0x08000246   Section        0  libshutdown2.o(.ARM.Collect$$libshutdown$$0000000C)
    .ARM.Collect$$libshutdown$$0000000F      0x08000246   Section        0  libshutdown2.o(.ARM.Collect$$libshutdown$$0000000F)
    .ARM.Collect$$libshutdown$$00000010      0x08000246   Section        2  libshutdown2.o(.ARM.Collect$$libshutdown$$00000010)
    .ARM.Collect$$rtentry$$00000000          0x08000248   Section        0  __rtentry.o(.ARM.Collect$$rtentry$$00000000)
    .ARM.Collect$$rtentry$$00000002          0x08000248   Section        0  __rtentry2.o(.ARM.Collect$$rtentry$$00000002)
    .ARM.Collect$$rtentry$$00000004          0x08000248   Section        6  __rtentry4.o(.ARM.Collect$$rtentry$$00000004)
    .ARM.Collect$$rtentry$$00000009          0x0800024e   Section        0  __rtentry2.o(.ARM.Collect$$rtentry$$00000009)
    .ARM.Collect$$rtentry$$0000000A          0x0800024e   Section        4  __rtentry2.o(.ARM.Collect$$rtentry$$0000000A)
    .ARM.Collect$$rtentry$$0000000C          0x08000252   Section        0  __rtentry2.o(.ARM.Collect$$rtentry$$0000000C)
    .ARM.Collect$$rtentry$$0000000D          0x08000252   Section        8  __rtentry2.o(.ARM.Collect$$rtentry$$0000000D)
    .ARM.Collect$$rtexit$$00000000           0x0800025a   Section        2  rtexit.o(.ARM.Collect$$rtexit$$00000000)
    .ARM.Collect$$rtexit$$00000002           0x0800025c   Section        0  rtexit2.o(.ARM.Collect$$rtexit$$00000002)
    .ARM.Collect$$rtexit$$00000003           0x0800025c   Section        4  rtexit2.o(.ARM.Collect$$rtexit$$00000003)
    .ARM.Collect$$rtexit$$00000004           0x08000260   Section        6  rtexit2.o(.ARM.Collect$$rtexit$$00000004)
    .text                                    0x08000268   Section        0  ucos_task.o(.text)
    .text                                    0x080020d8   Section        0  main.o(.text)
    .text                                    0x0800232c   Section        0  stm32f4xx_it.o(.text)
    .text                                    0x0800234c   Section        0  system_stm32f4xx.o(.text)
    SetSysClock                              0x0800234d   Thumb Code   220  system_stm32f4xx.o(.text)
    .text                                    0x0800255c   Section       64  startup_stm32f40_41xxx.o(.text)
    $v0                                      0x0800255c   Number         0  startup_stm32f40_41xxx.o(.text)
    .text                                    0x0800259c   Section        0  delay.o(.text)
    .text                                    0x080026a4   Section        0  misc.o(.text)
    .text                                    0x08002784   Section        0  stm32f4xx_gpio.o(.text)
    .text                                    0x08002a18   Section        0  stm32f4xx_rcc.o(.text)
    .text                                    0x08003074   Section        0  stm32f4xx_usart.o(.text)
    .text                                    0x080034c8   Section        0  stm32f4xx_tim.o(.text)
    TI4_Config                               0x08003c67   Thumb Code    80  stm32f4xx_tim.o(.text)
    TI3_Config                               0x08003cc9   Thumb Code    72  stm32f4xx_tim.o(.text)
    TI2_Config                               0x08003d2b   Thumb Code    90  stm32f4xx_tim.o(.text)
    TI1_Config                               0x08003d97   Thumb Code    58  stm32f4xx_tim.o(.text)
    .text                                    0x0800416c   Section        0  stm32f4xx_flash.o(.text)
    .text                                    0x08004800   Section        0  stm32f4xx_spi.o(.text)
    .text                                    0x08004c80   Section        0  stm32f4xx_dma.o(.text)
    .text                                    0x08005028   Section        0  stm32f4xx_rng.o(.text)
    .text                                    0x080050c8   Section        0  stm32f4xx_adc.o(.text)
    .text                                    0x0800552c   Section        0  stm32f4xx_iwdg.o(.text)
    .text                                    0x0800556c   Section        0  os_core.o(.text)
    OS_InitTaskStat                          0x08005617   Thumb Code    52  os_core.o(.text)
    OS_InitTaskIdle                          0x0800566d   Thumb Code    52  os_core.o(.text)
    OS_InitEventList                         0x080056b3   Thumb Code    74  os_core.o(.text)
    OS_InitTCBList                           0x080056fd   Thumb Code   106  os_core.o(.text)
    OS_InitRdyList                           0x08005767   Thumb Code    44  os_core.o(.text)
    OS_InitMisc                              0x08005793   Thumb Code    44  os_core.o(.text)
    OS_SchedNew                              0x0800580b   Thumb Code    26  os_core.o(.text)
    .text                                    0x08005e00   Section        0  os_flag.o(.text)
    OS_FlagTaskRdy                           0x08005f77   Thumb Code    82  os_flag.o(.text)
    OS_FlagBlock                             0x08006131   Thumb Code   152  os_flag.o(.text)
    .text                                    0x0800660c   Section        0  os_mbox.o(.text)
    .text                                    0x080069d8   Section        0  os_q.o(.text)
    .text                                    0x08006fc0   Section        0  os_sem.o(.text)
    .text                                    0x0800734c   Section        0  os_task.o(.text)
    .text                                    0x08007b10   Section        0  os_time.o(.text)
    .text                                    0x08007cc0   Section        0  os_tmr.o(.text)
    OSTmr_Alloc                              0x08007cc1   Thumb Code    50  os_tmr.o(.text)
    OSTmr_Free                               0x08007d53   Thumb Code    58  os_tmr.o(.text)
    OSTmr_Unlink                             0x08007d8d   Thumb Code    62  os_tmr.o(.text)
    OSTmr_Link                               0x08007fb3   Thumb Code   100  os_tmr.o(.text)
    OSTmr_Task                               0x08008179   Thumb Code   114  os_tmr.o(.text)
    OSTmr_InitTask                           0x080081eb   Thumb Code    50  os_tmr.o(.text)
    .text                                    0x080082f4   Section      200  os_cpu_a.o(.text)
    $v0                                      0x080082f4   Number         0  os_cpu_a.o(.text)
    .text                                    0x080083bc   Section        0  os_cpu_c.o(.text)
    .text                                    0x080085a4   Section        0  spi.o(.text)
    .text                                    0x0800882c   Section        0  flash.o(.text)
    .text                                    0x08009468   Section        0  led_fc.o(.text)
    .text                                    0x08009fd8   Section        0  pwm_out.o(.text)
    .text                                    0x0800a718   Section        0  time.o(.text)
    .text                                    0x0800a894   Section        0  rng.o(.text)
    .text                                    0x0800a900   Section        0  bat.o(.text)
    .text                                    0x0800b404   Section        0  beep.o(.text)
    .text                                    0x0800b988   Section        0  watch_dog.o(.text)
    .text                                    0x0800b9b4   Section        0  nrf.o(.text)
    .text                                    0x0800bc3c   Section        0  flash_w25.o(.text)
    .text                                    0x0800bfac   Section        0  iic_vl53.o(.text)
    .text                                    0x0800dda0   Section        0  usart_fc.o(.text)
    .text                                    0x0800f370   Section        0  rc_mine.o(.text)
    .text                                    0x08010070   Section        0  mems.o(.text)
    .text                                    0x080113f4   Section        0  icm20602.o(.text)
    .text                                    0x08011764   Section        0  imu.o(.text)
    .text                                    0x080137a0   Section        0  ms5611.o(.text)
    MS5611_Start_T                           0x08013925   Thumb Code    12  ms5611.o(.text)
    MS5611_Read_Prom                         0x08013931   Thumb Code    78  ms5611.o(.text)
    MS5611_Reset                             0x0801397f   Thumb Code    12  ms5611.o(.text)
    MS5611_Read_Adc_T                        0x080139a1   Thumb Code    16  ms5611.o(.text)
    MS5611_Read_Adc_P                        0x080139b1   Thumb Code    16  ms5611.o(.text)
    MS5611_Start_P                           0x080139c1   Thumb Code    12  ms5611.o(.text)
    MS5611_BaroAltCalculate                  0x080139cd   Thumb Code   562  ms5611.o(.text)
    .text                                    0x08013d70   Section        0  vmc_demo.o(.text)
    leg_off_publish_d                        0x08015139   Thumb Code    94  vmc_demo.o(.text)
    state_rst_d                              0x08015197   Thumb Code  2788  vmc_demo.o(.text)
    cal_tar_end_pos_d                        0x08015f77   Thumb Code  1192  vmc_demo.o(.text)
    spd_control_d                            0x0801641f   Thumb Code  2670  vmc_demo.o(.text)
    vmc_force_control_d                      0x08016e8d   Thumb Code  2360  vmc_demo.o(.text)
    cal_force_y_d                            0x080177c5   Thumb Code   534  vmc_demo.o(.text)
    cal_force_z_d                            0x080179db   Thumb Code   320  vmc_demo.o(.text)
    trig_curve_d                             0x08017b1b   Thumb Code  1254  vmc_demo.o(.text)
    state_check_d                            0x08018ff7   Thumb Code   464  vmc_demo.o(.text)
    __ARM_isnanf                             0x0801a1dd   Thumb Code    14  vmc_demo.o(.text)
    .text                                    0x0801a210   Section        0  vmc_sdk.o(.text)
    .text                                    0x0801b134   Section        0  fliter.o(.text)
    .text                                    0x0801b6e4   Section        0  my_math.o(.text)
    sign                                     0x0801b6e5   Thumb Code    40  my_math.o(.text)
    fst2                                     0x0801b765   Thumb Code   324  my_math.o(.text)
    fst                                      0x0801b8a9   Thumb Code   388  my_math.o(.text)
    .text                                    0x0801ceb0   Section        0  pose_fushion.o(.text)
    .text                                    0x0801d380   Section        0  baro_fushion.o(.text)
    .text                                    0x0801d520   Section        0  pose_kf.o(.text)
    .text                                    0x0801e880   Section        0  baro_kf.o(.text)
    .text                                    0x0801f384   Section        0  rt_nonfinite.o(.text)
    .text                                    0x0801f484   Section        0  rtgetinf.o(.text)
    .text                                    0x0801f5b8   Section        0  rtgetnan.o(.text)
    .text                                    0x0801f680   Section        0  sbus.o(.text)
    .text                                    0x0801f8e0   Section        0  cycle_cal_oldx.o(.text)
    .text                                    0x080202f8   Section        0  vmc.o(.text)
    check_lisence                            0x08020355   Thumb Code   672  vmc.o(.text)
    leg_off_publish                          0x08021f9b   Thumb Code    94  vmc.o(.text)
    state_rst                                0x0802236d   Thumb Code  5330  vmc.o(.text)
    cal_tar_end_pos                          0x08023db7   Thumb Code  1450  vmc.o(.text)
    cal_tar_end_pos1                         0x08024361   Thumb Code  1396  vmc.o(.text)
    cal_curve_from_pos_new                   0x08029837   Thumb Code  3534  vmc.o(.text)
    cal_pos_tar_from_curve                   0x0802a605   Thumb Code   612  vmc.o(.text)
    trig_curve                               0x0802a869   Thumb Code  2352  vmc.o(.text)
    __ARM_isnanf                             0x0802ecaf   Thumb Code    14  vmc.o(.text)
    .text                                    0x0802ecd4   Section      100  rt_memcpy_w.o(.text)
    .text                                    0x0802ed38   Section       78  rt_memclr_w.o(.text)
    .text                                    0x0802ed86   Section        0  heapauxi.o(.text)
    .text                                    0x0802ed8c   Section        0  _rserrno.o(.text)
    .text                                    0x0802eda4   Section        8  rt_errno_addr_intlibspace.o(.text)
    .text                                    0x0802edac   Section        8  libspace.o(.text)
    .text                                    0x0802edb4   Section       74  sys_stackheap_outer.o(.text)
    .text                                    0x0802edfe   Section        0  exit.o(.text)
    .text                                    0x0802ee10   Section        0  sys_exit.o(.text)
    .text                                    0x0802ee1c   Section        2  use_no_semi.o(.text)
    .text                                    0x0802ee1e   Section        0  indicate_semi.o(.text)
    i.__ARM_fpclassify                       0x0802ee1e   Section        0  fpclassify.o(i.__ARM_fpclassify)
    i.__ARM_fpclassifyf                      0x0802ee4e   Section        0  fpclassifyf.o(i.__ARM_fpclassifyf)
    i.__hardfp_acos                          0x0802ee78   Section        0  acos.o(i.__hardfp_acos)
    i.__hardfp_asin                          0x0802f1d0   Section        0  asin.o(i.__hardfp_asin)
    i.__hardfp_atan                          0x0802f530   Section        0  atan.o(i.__hardfp_atan)
    i.__hardfp_atan2                         0x0802f808   Section        0  atan2.o(i.__hardfp_atan2)
    i.__hardfp_atan2f                        0x0802f9f8   Section        0  atan2f.o(i.__hardfp_atan2f)
    i.__hardfp_cos                           0x0802fc48   Section        0  cos.o(i.__hardfp_cos)
    i.__hardfp_cosf                          0x0802fd10   Section        0  cosf.o(i.__hardfp_cosf)
    i.__hardfp_fabs                          0x0802fe60   Section        0  fabs.o(i.__hardfp_fabs)
    i.__hardfp_pow                           0x0802fe78   Section        0  pow.o(i.__hardfp_pow)
    i.__hardfp_sin                           0x08030ac8   Section        0  sin.o(i.__hardfp_sin)
    i.__hardfp_sinf                          0x08030b90   Section        0  sinf.o(i.__hardfp_sinf)
    i.__hardfp_sqrt                          0x08030d20   Section        0  sqrt.o(i.__hardfp_sqrt)
    i.__hardfp_tan                           0x08030da0   Section        0  tan.o(i.__hardfp_tan)
    i.__ieee754_rem_pio2                     0x08030e20   Section        0  rred.o(i.__ieee754_rem_pio2)
    i.__kernel_cos                           0x08031258   Section        0  cos_i.o(i.__kernel_cos)
    i.__kernel_poly                          0x080313c8   Section        0  poly.o(i.__kernel_poly)
    i.__kernel_sin                           0x080314c0   Section        0  sin_i.o(i.__kernel_sin)
    i.__kernel_tan                           0x080315f0   Section        0  tan_i.o(i.__kernel_tan)
    i.__mathlib_dbl_divzero                  0x08031940   Section        0  dunder.o(i.__mathlib_dbl_divzero)
    i.__mathlib_dbl_infnan                   0x08031970   Section        0  dunder.o(i.__mathlib_dbl_infnan)
    i.__mathlib_dbl_infnan2                  0x08031984   Section        0  dunder.o(i.__mathlib_dbl_infnan2)
    i.__mathlib_dbl_invalid                  0x08031998   Section        0  dunder.o(i.__mathlib_dbl_invalid)
    i.__mathlib_dbl_overflow                 0x080319b8   Section        0  dunder.o(i.__mathlib_dbl_overflow)
    i.__mathlib_dbl_underflow                0x080319d8   Section        0  dunder.o(i.__mathlib_dbl_underflow)
    i.__mathlib_flt_infnan                   0x080319f8   Section        0  funder.o(i.__mathlib_flt_infnan)
    i.__mathlib_flt_infnan2                  0x080319fe   Section        0  funder.o(i.__mathlib_flt_infnan2)
    i.__mathlib_flt_invalid                  0x08031a04   Section        0  funder.o(i.__mathlib_flt_invalid)
    i.__mathlib_flt_underflow                0x08031a14   Section        0  funder.o(i.__mathlib_flt_underflow)
    i.__mathlib_rredf2                       0x08031a24   Section        0  rredf.o(i.__mathlib_rredf2)
    i.atan                                   0x08031b78   Section        0  atan.o(i.atan)
    i.fabs                                   0x08031b88   Section        0  fabs.o(i.fabs)
    i.sqrt                                   0x08031ba0   Section        0  sqrt.o(i.sqrt)
    x$fpl$basic                              0x08031c0e   Section       24  basic.o(x$fpl$basic)
    $v0                                      0x08031c0e   Number         0  basic.o(x$fpl$basic)
    x$fpl$d2f                                0x08031c28   Section       98  d2f.o(x$fpl$d2f)
    $v0                                      0x08031c28   Number         0  d2f.o(x$fpl$d2f)
    x$fpl$dadd                               0x08031c8c   Section      336  daddsub_clz.o(x$fpl$dadd)
    $v0                                      0x08031c8c   Number         0  daddsub_clz.o(x$fpl$dadd)
    _dadd1                                   0x08031c9d   Thumb Code     0  daddsub_clz.o(x$fpl$dadd)
    x$fpl$dcheck1                            0x08031ddc   Section       16  dcheck1.o(x$fpl$dcheck1)
    $v0                                      0x08031ddc   Number         0  dcheck1.o(x$fpl$dcheck1)
    x$fpl$dcmpinf                            0x08031dec   Section       24  dcmpi.o(x$fpl$dcmpinf)
    $v0                                      0x08031dec   Number         0  dcmpi.o(x$fpl$dcmpinf)
    x$fpl$ddiv                               0x08031e04   Section      688  ddiv.o(x$fpl$ddiv)
    $v0                                      0x08031e04   Number         0  ddiv.o(x$fpl$ddiv)
    ddiv_entry                               0x08031e0b   Thumb Code     0  ddiv.o(x$fpl$ddiv)
    x$fpl$deqf                               0x080320b4   Section      120  deqf.o(x$fpl$deqf)
    $v0                                      0x080320b4   Number         0  deqf.o(x$fpl$deqf)
    x$fpl$dfix                               0x0803212c   Section       94  dfix.o(x$fpl$dfix)
    $v0                                      0x0803212c   Number         0  dfix.o(x$fpl$dfix)
    x$fpl$dfixu                              0x0803218c   Section       90  dfixu.o(x$fpl$dfixu)
    $v0                                      0x0803218c   Number         0  dfixu.o(x$fpl$dfixu)
    x$fpl$dflt                               0x080321e6   Section       46  dflt_clz.o(x$fpl$dflt)
    $v0                                      0x080321e6   Number         0  dflt_clz.o(x$fpl$dflt)
    x$fpl$dfltu                              0x08032214   Section       38  dflt_clz.o(x$fpl$dfltu)
    $v0                                      0x08032214   Number         0  dflt_clz.o(x$fpl$dfltu)
    x$fpl$dleqf                              0x0803223c   Section      120  dleqf.o(x$fpl$dleqf)
    $v0                                      0x0803223c   Number         0  dleqf.o(x$fpl$dleqf)
    x$fpl$dmul                               0x080322b4   Section      340  dmul.o(x$fpl$dmul)
    $v0                                      0x080322b4   Number         0  dmul.o(x$fpl$dmul)
    x$fpl$dnaninf                            0x08032408   Section      156  dnaninf.o(x$fpl$dnaninf)
    $v0                                      0x08032408   Number         0  dnaninf.o(x$fpl$dnaninf)
    x$fpl$dretinf                            0x080324a4   Section       12  dretinf.o(x$fpl$dretinf)
    $v0                                      0x080324a4   Number         0  dretinf.o(x$fpl$dretinf)
    x$fpl$drleqf                             0x080324b0   Section      108  drleqf.o(x$fpl$drleqf)
    $v0                                      0x080324b0   Number         0  drleqf.o(x$fpl$drleqf)
    x$fpl$drsb                               0x0803251c   Section       22  daddsub_clz.o(x$fpl$drsb)
    $v0                                      0x0803251c   Number         0  daddsub_clz.o(x$fpl$drsb)
    x$fpl$dsqrt                              0x08032534   Section      408  dsqrt_umaal.o(x$fpl$dsqrt)
    $v0                                      0x08032534   Number         0  dsqrt_umaal.o(x$fpl$dsqrt)
    x$fpl$dsub                               0x080326cc   Section      468  daddsub_clz.o(x$fpl$dsub)
    $v0                                      0x080326cc   Number         0  daddsub_clz.o(x$fpl$dsub)
    _dsub1                                   0x080326dd   Thumb Code     0  daddsub_clz.o(x$fpl$dsub)
    x$fpl$f2d                                0x080328a0   Section       86  f2d.o(x$fpl$f2d)
    $v0                                      0x080328a0   Number         0  f2d.o(x$fpl$f2d)
    x$fpl$fnaninf                            0x080328f6   Section      140  fnaninf.o(x$fpl$fnaninf)
    $v0                                      0x080328f6   Number         0  fnaninf.o(x$fpl$fnaninf)
    x$fpl$fpinit                             0x08032982   Section       10  fpinit.o(x$fpl$fpinit)
    $v0                                      0x08032982   Number         0  fpinit.o(x$fpl$fpinit)
    x$fpl$fretinf                            0x0803298c   Section       10  fretinf.o(x$fpl$fretinf)
    $v0                                      0x0803298c   Number         0  fretinf.o(x$fpl$fretinf)
    x$fpl$retnan                             0x08032996   Section      100  retnan.o(x$fpl$retnan)
    $v0                                      0x08032996   Number         0  retnan.o(x$fpl$retnan)
    x$fpl$scalbn                             0x080329fa   Section       92  scalbn.o(x$fpl$scalbn)
    $v0                                      0x080329fa   Number         0  scalbn.o(x$fpl$scalbn)
    x$fpl$trapveneer                         0x08032a56   Section       48  trapv.o(x$fpl$trapveneer)
    $v0                                      0x08032a56   Number         0  trapv.o(x$fpl$trapveneer)
    .constdata                               0x08032a86   Section      256  os_core.o(.constdata)
    x$fpl$usenofp                            0x08032a86   Section        0  usenofp.o(x$fpl$usenofp)
    .constdata                               0x08032b88   Section       24  ms5611.o(.constdata)
    b_baro_pressure                          0x08032b88   Data          12  ms5611.o(.constdata)
    a_baro_pressure                          0x08032b94   Data          12  ms5611.o(.constdata)
    .constdata                               0x08032ba0   Section       32  pose_fushion.o(.constdata)
    .constdata                               0x08032bc0   Section       12  pose_kf.o(.constdata)
    iv0                                      0x08032bc0   Data           4  pose_kf.o(.constdata)
    iv1                                      0x08032bc4   Data           4  pose_kf.o(.constdata)
    iv2                                      0x08032bc8   Data           4  pose_kf.o(.constdata)
    .constdata                               0x08032bcc   Section       12  baro_kf.o(.constdata)
    iv0                                      0x08032bcc   Data           4  baro_kf.o(.constdata)
    iv1                                      0x08032bd0   Data           4  baro_kf.o(.constdata)
    iv2                                      0x08032bd4   Data           4  baro_kf.o(.constdata)
    .constdata                               0x08032bd8   Section       80  acos.o(.constdata)
    pS                                       0x08032bd8   Data          48  acos.o(.constdata)
    qS                                       0x08032c08   Data          32  acos.o(.constdata)
    .constdata                               0x08032c28   Section       80  asin.o(.constdata)
    pS                                       0x08032c28   Data          48  asin.o(.constdata)
    qS                                       0x08032c58   Data          32  asin.o(.constdata)
    .constdata                               0x08032c78   Section      152  atan.o(.constdata)
    atanhi                                   0x08032c78   Data          32  atan.o(.constdata)
    atanlo                                   0x08032c98   Data          32  atan.o(.constdata)
    aTodd                                    0x08032cb8   Data          40  atan.o(.constdata)
    aTeven                                   0x08032ce0   Data          48  atan.o(.constdata)
    .constdata                               0x08032d10   Section      136  pow.o(.constdata)
    bp                                       0x08032d10   Data          16  pow.o(.constdata)
    dp_h                                     0x08032d20   Data          16  pow.o(.constdata)
    dp_l                                     0x08032d30   Data          16  pow.o(.constdata)
    L                                        0x08032d40   Data          48  pow.o(.constdata)
    P                                        0x08032d70   Data          40  pow.o(.constdata)
    .constdata                               0x08032d98   Section       48  cos_i.o(.constdata)
    C                                        0x08032d98   Data          48  cos_i.o(.constdata)
    .constdata                               0x08032dc8   Section        8  qnan.o(.constdata)
    .constdata                               0x08032dd0   Section      200  rred.o(.constdata)
    pio2s                                    0x08032dd0   Data          48  rred.o(.constdata)
    twooverpi                                0x08032e00   Data         152  rred.o(.constdata)
    .constdata                               0x08032e98   Section       32  rredf.o(.constdata)
    twooverpi                                0x08032e98   Data          32  rredf.o(.constdata)
    .constdata                               0x08032eb8   Section       40  sin_i.o(.constdata)
    S                                        0x08032eb8   Data          40  sin_i.o(.constdata)
    .constdata                               0x08032ee0   Section       96  tan_i.o(.constdata)
    Todd                                     0x08032ee0   Data          48  tan_i.o(.constdata)
    Teven                                    0x08032f10   Data          48  tan_i.o(.constdata)
    .data                                    0x20000000   Section       95  ucos_task.o(.data)
    init                                     0x20000032   Data           1  ucos_task.o(.data)
    cnt_init                                 0x20000034   Data           2  ucos_task.o(.data)
    timer_baro                               0x20000038   Data           4  ucos_task.o(.data)
    init                                     0x2000003c   Data           1  ucos_task.o(.data)
    cnt_init                                 0x2000003e   Data           2  ucos_task.o(.data)
    timer_pose_fushion                       0x20000040   Data           4  ucos_task.o(.data)
    cnt                                      0x20000044   Data           1  ucos_task.o(.data)
    cnt1                                     0x20000045   Data           1  ucos_task.o(.data)
    cnt2                                     0x20000046   Data           1  ucos_task.o(.data)
    init                                     0x20000047   Data           1  ucos_task.o(.data)
    rc_update                                0x20000048   Data           1  ucos_task.o(.data)
    flag_dP                                  0x2000004c   Data           4  ucos_task.o(.data)
    reg_aux                                  0x20000050   Data           4  ucos_task.o(.data)
    cnt                                      0x20000054   Data           4  ucos_task.o(.data)
    tcnt                                     0x20000058   Data           1  ucos_task.o(.data)
    cnt_1                                    0x2000005a   Data           2  ucos_task.o(.data)
    cnt_2                                    0x2000005c   Data           2  ucos_task.o(.data)
    cnt                                      0x2000005e   Data           1  ucos_task.o(.data)
    .data                                    0x20000060   Section       13  main.o(.data)
    .data                                    0x2000006d   Section        1  stm32f4xx_it.o(.data)
    .data                                    0x20000070   Section       20  system_stm32f4xx.o(.data)
    .data                                    0x20000084   Section        4  delay.o(.data)
    fac_us                                   0x20000084   Data           1  delay.o(.data)
    fac_ms                                   0x20000086   Data           2  delay.o(.data)
    .data                                    0x20000088   Section       16  stm32f4xx_rcc.o(.data)
    APBAHBPrescTable                         0x20000088   Data          16  stm32f4xx_rcc.o(.data)
    .data                                    0x20000098   Section       92  os_core.o(.data)
    .data                                    0x200000f4   Section        6  os_cpu_c.o(.data)
    OSTmrCtr                                 0x200000f8   Data           2  os_cpu_c.o(.data)
    .data                                    0x200000fc   Section       46  flash.o(.data)
    .data                                    0x2000012c   Section       31  led_fc.o(.data)
    main_state                               0x20000134   Data           1  led_fc.o(.data)
    mpu_state                                0x20000135   Data           1  led_fc.o(.data)
    m_state                                  0x20000136   Data           1  led_fc.o(.data)
    idle_state                               0x20000137   Data           1  led_fc.o(.data)
    beep_state                               0x20000138   Data           1  led_fc.o(.data)
    cnt                                      0x2000013a   Data           2  led_fc.o(.data)
    cnt_idle                                 0x2000013c   Data           2  led_fc.o(.data)
    beep_sel                                 0x2000013e   Data           1  led_fc.o(.data)
    cnt_beep                                 0x20000140   Data           4  led_fc.o(.data)
    cnt_dj_beep                              0x20000144   Data           4  led_fc.o(.data)
    cnt_gps                                  0x20000148   Data           1  led_fc.o(.data)
    flag_cnt_gps                             0x20000149   Data           1  led_fc.o(.data)
    mission_flag_reg                         0x2000014a   Data           1  led_fc.o(.data)
    .data                                    0x2000014c   Section       88  pwm_out.o(.data)
    .data                                    0x200001a4   Section       76  bat.o(.data)
    init                                     0x200001e4   Data           1  bat.o(.data)
    state                                    0x200001e5   Data           1  bat.o(.data)
    temp                                     0x200001e8   Data           4  bat.o(.data)
    temp1                                    0x200001ec   Data           4  bat.o(.data)
    .data                                    0x200001f0   Section      548  beep.o(.data)
    flag                                     0x2000040e   Data           1  beep.o(.data)
    state                                    0x2000040f   Data           1  beep.o(.data)
    i                                        0x20000410   Data           2  beep.o(.data)
    cnt                                      0x20000412   Data           2  beep.o(.data)
    .data                                    0x20000414   Section       10  nrf.o(.data)
    .data                                    0x2000041e   Section        2  flash_w25.o(.data)
    .data                                    0x20000420   Section       18  iic_vl53.o(.data)
    i                                        0x2000042c   Data           1  iic_vl53.o(.data)
    ground                                   0x2000042d   Data           4  iic_vl53.o(.data)
    init                                     0x20000431   Data           1  iic_vl53.o(.data)
    .data                                    0x20000432   Section       46  usart_fc.o(.data)
    _data_len1                               0x20000438   Data           1  usart_fc.o(.data)
    _data_cnt1                               0x20000439   Data           1  usart_fc.o(.data)
    _data_len2                               0x20000440   Data           1  usart_fc.o(.data)
    _data_cnt2                               0x20000441   Data           1  usart_fc.o(.data)
    _data_len3                               0x20000448   Data           1  usart_fc.o(.data)
    _data_cnt3                               0x20000449   Data           1  usart_fc.o(.data)
    _data_len4                               0x20000450   Data           1  usart_fc.o(.data)
    _data_cnt4                               0x20000451   Data           1  usart_fc.o(.data)
    _data_len5                               0x20000452   Data           1  usart_fc.o(.data)
    _data_cnt5                               0x20000453   Data           1  usart_fc.o(.data)
    cnt                                      0x20000458   Data           4  usart_fc.o(.data)
    cnt                                      0x2000045c   Data           4  usart_fc.o(.data)
    .data                                    0x20000460   Section       21  rc_mine.o(.data)
    cnt_loss_rc                              0x2000046e   Data           2  rc_mine.o(.data)
    cnt                                      0x20000470   Data           5  rc_mine.o(.data)
    .data                                    0x20000478   Section      120  mems.o(.data)
    cnt                                      0x200004ac   Data           4  mems.o(.data)
    acc_3d_step_reg                          0x200004b0   Data           1  mems.o(.data)
    MagMAX                                   0x200004b4   Data          12  mems.o(.data)
    MagMIN                                   0x200004c0   Data          12  mems.o(.data)
    MagMAXo                                  0x200004cc   Data          12  mems.o(.data)
    MagMINo                                  0x200004d8   Data          12  mems.o(.data)
    hml_cal_temp                             0x200004e4   Data           1  mems.o(.data)
    state_cal_hml                            0x200004e5   Data           1  mems.o(.data)
    init                                     0x200004e6   Data           1  mems.o(.data)
    cnt1                                     0x200004e8   Data           4  mems.o(.data)
    cnt_m                                    0x200004ec   Data           4  mems.o(.data)
    .data                                    0x200004f0   Section        5  icm20602.o(.data)
    temp                                     0x200004f3   Data           1  icm20602.o(.data)
    cnt                                      0x200004f4   Data           1  icm20602.o(.data)
    .data                                    0x200004f8   Section      140  imu.o(.data)
    accMagP                                  0x20000564   Data           4  imu.o(.data)
    MagP                                     0x20000568   Data           4  imu.o(.data)
    state                                    0x2000056c   Data           1  imu.o(.data)
    timer                                    0x20000570   Data           4  imu.o(.data)
    timer_err                                0x20000574   Data           4  imu.o(.data)
    init                                     0x20000578   Data           1  imu.o(.data)
    imu_init                                 0x20000579   Data           1  imu.o(.data)
    init_mag_cnt                             0x2000057c   Data           4  imu.o(.data)
    yaw_correct_flt                          0x20000580   Data           4  imu.o(.data)
    .data                                    0x20000584   Section       16  ms5611.o(.data)
    state                                    0x20000584   Data           4  ms5611.o(.data)
    cnt_init                                 0x20000588   Data           4  ms5611.o(.data)
    timer                                    0x2000058c   Data           8  ms5611.o(.data)
    .data                                    0x20000594   Section       98  vmc_demo.o(.data)
    att_trig_reset_dead                      0x200005b0   Data           4  vmc_demo.o(.data)
    st                                       0x200005b4   Data           4  vmc_demo.o(.data)
    rst_yaw                                  0x200005b8   Data           8  vmc_demo.o(.data)
    timer                                    0x200005c0   Data           4  vmc_demo.o(.data)
    err_yaw                                  0x200005c4   Data           4  vmc_demo.o(.data)
    yaw_out                                  0x200005c8   Data           4  vmc_demo.o(.data)
    exp_yaw_rate                             0x200005cc   Data           4  vmc_demo.o(.data)
    rate_reg                                 0x200005d0   Data           4  vmc_demo.o(.data)
    interge                                  0x200005d4   Data           4  vmc_demo.o(.data)
    err_timer                                0x200005d8   Data           4  vmc_demo.o(.data)
    t                                        0x200005dc   Data           4  vmc_demo.o(.data)
    state                                    0x200005e0   Data           1  vmc_demo.o(.data)
    rst_state                                0x200005e1   Data           1  vmc_demo.o(.data)
    soft_start_state                         0x200005e2   Data           1  vmc_demo.o(.data)
    state_hold                               0x200005e3   Data           1  vmc_demo.o(.data)
    state_unmove                             0x200005e4   Data           1  vmc_demo.o(.data)
    state                                    0x200005e5   Data           1  vmc_demo.o(.data)
    cnt                                      0x200005e8   Data           4  vmc_demo.o(.data)
    init                                     0x200005ec   Data           1  vmc_demo.o(.data)
    state                                    0x200005ed   Data           1  vmc_demo.o(.data)
    switch_flag                              0x200005ee   Data           1  vmc_demo.o(.data)
    cnt_time_change                          0x200005ef   Data           1  vmc_demo.o(.data)
    time                                     0x200005f0   Data           2  vmc_demo.o(.data)
    time1                                    0x200005f2   Data           2  vmc_demo.o(.data)
    front_leg                                0x200005f4   Data           1  vmc_demo.o(.data)
    back_leg                                 0x200005f5   Data           1  vmc_demo.o(.data)
    .data                                    0x200005f8   Section       56  vmc_sdk.o(.data)
    cnt                                      0x2000061c   Data           4  vmc_sdk.o(.data)
    timer_rst                                0x20000620   Data           4  vmc_sdk.o(.data)
    hold                                     0x20000624   Data           1  vmc_sdk.o(.data)
    hold_timer                               0x20000628   Data           4  vmc_sdk.o(.data)
    reset_timer                              0x2000062c   Data           4  vmc_sdk.o(.data)
    .data                                    0x20000630   Section       12  fliter.o(.data)
    pn                                       0x20000630   Data           1  fliter.o(.data)
    h_tmp_x                                  0x20000634   Data           4  fliter.o(.data)
    h_tmp_y                                  0x20000638   Data           4  fliter.o(.data)
    .data                                    0x2000063c   Section     1028  my_math.o(.data)
    .data                                    0x20000a40   Section       64  pose_fushion.o(.data)
    .data                                    0x20000a80   Section      181  baro_fushion.o(.data)
    init                                     0x20000b34   Data           1  baro_fushion.o(.data)
    .data                                    0x20000b38   Section       16  baro_kf.o(.data)
    .data                                    0x20000b48   Section       36  rt_nonfinite.o(.data)
    .data                                    0x20000b6c   Section       92  sbus.o(.data)
    state                                    0x20000bc6   Data           1  sbus.o(.data)
    byteCNT                                  0x20000bc7   Data           1  sbus.o(.data)
    .data                                    0x20000bc8   Section      346  vmc.o(.data)
    mmy_key                                  0x20000c40   Data          24  vmc.o(.data)
    iid_off                                  0x20000c58   Data          12  vmc.o(.data)
    ukey_state                               0x20000c64   Data           1  vmc.o(.data)
    block_lisence                            0x20000c65   Data           1  vmc.o(.data)
    board_id_test                            0x20000c68   Data          12  vmc.o(.data)
    err_timer                                0x20000cd4   Data           4  vmc.o(.data)
    st                                       0x20000cd8   Data           4  vmc.o(.data)
    reg                                      0x20000cdc   Data           4  vmc.o(.data)
    rst_yaw                                  0x20000ce0   Data           8  vmc.o(.data)
    timer                                    0x20000ce8   Data           4  vmc.o(.data)
    err_yaw                                  0x20000cec   Data           4  vmc.o(.data)
    yaw_out                                  0x20000cf0   Data           4  vmc.o(.data)
    exp_yaw_rate                             0x20000cf4   Data           4  vmc.o(.data)
    rate_reg                                 0x20000cf8   Data           4  vmc.o(.data)
    interge                                  0x20000cfc   Data           4  vmc.o(.data)
    state_hold                               0x20000d00   Data           1  vmc.o(.data)
    state_unmove                             0x20000d01   Data           1  vmc.o(.data)
    hand_reg                                 0x20000d02   Data           1  vmc.o(.data)
    t                                        0x20000d04   Data           4  vmc.o(.data)
    state                                    0x20000d08   Data           1  vmc.o(.data)
    rst_state                                0x20000d09   Data           1  vmc.o(.data)
    soft_start_state                         0x20000d0a   Data           1  vmc.o(.data)
    gait_flag                                0x20000d0b   Data           1  vmc.o(.data)
    state_extend                             0x20000d0c   Data           1  vmc.o(.data)
    good_cnt                                 0x20000d0d   Data           4  vmc.o(.data)
    state                                    0x20000d11   Data           1  vmc.o(.data)
    cnt                                      0x20000d14   Data           4  vmc.o(.data)
    init                                     0x20000d18   Data           1  vmc.o(.data)
    state                                    0x20000d19   Data           1  vmc.o(.data)
    switch_flag                              0x20000d1a   Data           1  vmc.o(.data)
    cnt_time_change                          0x20000d1b   Data           1  vmc.o(.data)
    time                                     0x20000d1c   Data           2  vmc.o(.data)
    time1                                    0x20000d1e   Data           2  vmc.o(.data)
    front_leg                                0x20000d20   Data           1  vmc.o(.data)
    back_leg                                 0x20000d21   Data           1  vmc.o(.data)
    .bss                                     0x20000d24   Section    94792  ucos_task.o(.bss)
    acc_flt                                  0x20017f60   Data          12  ucos_task.o(.bss)
    .bss                                     0x20017f6c   Section     1280  main.o(.bss)
    .bss                                     0x2001846c   Section     4744  os_core.o(.bss)
    .bss                                     0x200196f4   Section       12  led_fc.o(.bss)
    cnt_dj_cal                               0x200196f4   Data          12  led_fc.o(.bss)
    .bss                                     0x20019700   Section      180  time.o(.bss)
    .bss                                     0x200197b4   Section      166  bat.o(.bss)
    press_leg_endr                           0x2001983c   Data          20  bat.o(.bss)
    cnt                                      0x20019850   Data          10  bat.o(.bss)
    .bss                                     0x2001985a   Section       64  nrf.o(.bss)
    .bss                                     0x2001989a   Section     4096  flash_w25.o(.bss)
    .bss                                     0x2001a89a   Section      172  iic_vl53.o(.bss)
    cnt                                      0x2001a91e   Data          16  iic_vl53.o(.bss)
    flag1                                    0x2001a92e   Data          12  iic_vl53.o(.bss)
    state                                    0x2001a93a   Data          12  iic_vl53.o(.bss)
    .bss                                     0x2001a948   Section     2118  usart_fc.o(.bss)
    cnt                                      0x2001b17a   Data          10  usart_fc.o(.bss)
    flag                                     0x2001b184   Data          10  usart_fc.o(.bss)
    .bss                                     0x2001b190   Section      436  rc_mine.o(.bss)
    .bss                                     0x2001b344   Section      796  mems.o(.bss)
    ACC_Reg                                  0x2001b630   Data          12  mems.o(.bss)
    Mag_Reg                                  0x2001b63c   Data          12  mems.o(.bss)
    MagSum                                   0x2001b648   Data          12  mems.o(.bss)
    MagSumo                                  0x2001b654   Data          12  mems.o(.bss)
    .bss                                     0x2001b660   Section      364  icm20602.o(.bss)
    .bss                                     0x2001b7cc   Section       96  imu.o(.bss)
    .bss                                     0x2001b82c   Section       80  ms5611.o(.bss)
    input                                    0x2001b864   Data          12  ms5611.o(.bss)
    output                                   0x2001b870   Data          12  ms5611.o(.bss)
    .bss                                     0x2001b87c   Section      484  vmc_demo.o(.bss)
    time                                     0x2001b9d0   Data          20  vmc_demo.o(.bss)
    t_rst                                    0x2001b9e4   Data          12  vmc_demo.o(.bss)
    timer                                    0x2001b9f0   Data          20  vmc_demo.o(.bss)
    timer                                    0x2001ba04   Data          20  vmc_demo.o(.bss)
    ground_reg                               0x2001ba18   Data          32  vmc_demo.o(.bss)
    timer                                    0x2001ba38   Data          40  vmc_demo.o(.bss)
    .bss                                     0x2001ba60   Section       64  vmc_sdk.o(.bss)
    err_flt                                  0x2001ba94   Data          12  vmc_sdk.o(.bss)
    .bss                                     0x2001baa0   Section     2550  fliter.o(.bss)
    .bss                                     0x2001c498   Section     1760  my_math.o(.bss)
    .bss                                     0x2001cb78   Section      480  pose_fushion.o(.bss)
    .bss                                     0x2001cd58   Section       32  baro_fushion.o(.bss)
    .bss                                     0x2001cd78   Section      960  baro_kf.o(.bss)
    pos_buf                                  0x2001cd78   Data         240  baro_kf.o(.bss)
    vel_buf                                  0x2001ce68   Data         240  baro_kf.o(.bss)
    acc_buf                                  0x2001cf58   Data         240  baro_kf.o(.bss)
    bias_buf                                 0x2001d048   Data         240  baro_kf.o(.bss)
    .bss                                     0x2001d138   Section      168  cycle_cal_oldx.o(.bss)
    .bss                                     0x2001d1e0   Section     6728  vmc.o(.bss)
    board_license_test                       0x2001e7d0   Data          12  vmc.o(.bss)
    c0                                       0x2001ea1c   Data          48  vmc.o(.bss)
    c3                                       0x2001ea4c   Data          48  vmc.o(.bss)
    c4                                       0x2001ea7c   Data          48  vmc.o(.bss)
    c5                                       0x2001eaac   Data          48  vmc.o(.bss)
    c6                                       0x2001eadc   Data          48  vmc.o(.bss)
    time                                     0x2001eb0c   Data          20  vmc.o(.bss)
    err                                      0x2001eb20   Data          32  vmc.o(.bss)
    timer                                    0x2001eb40   Data          20  vmc.o(.bss)
    ground_reg                               0x2001eb54   Data          32  vmc.o(.bss)
    t_rst                                    0x2001eb74   Data          12  vmc.o(.bss)
    timer                                    0x2001eb80   Data          20  vmc.o(.bss)
    cnt_rst                                  0x2001eb94   Data          16  vmc.o(.bss)
    ground_reg                               0x2001eba4   Data          32  vmc.o(.bss)
    ground_cnt                               0x2001ebc4   Data          16  vmc.o(.bss)
    extend_gain                              0x2001ebd4   Data          16  vmc.o(.bss)
    check_time                               0x2001ebe4   Data          16  vmc.o(.bss)
    cnt                                      0x2001ebf4   Data          12  vmc.o(.bss)
    timer_task                               0x2001ec00   Data          40  vmc.o(.bss)
    .bss                                     0x2001ec28   Section       96  libspace.o(.bss)
    HEAP                                     0x2001ec88   Section      512  startup_stm32f40_41xxx.o(HEAP)
    Heap_Mem                                 0x2001ec88   Data         512  startup_stm32f40_41xxx.o(HEAP)
    STACK                                    0x2001ee88   Section     1024  startup_stm32f40_41xxx.o(STACK)
    Stack_Mem                                0x2001ee88   Data        1024  startup_stm32f40_41xxx.o(STACK)
    __initial_sp                             0x2001f288   Data           0  startup_stm32f40_41xxx.o(STACK)

    Global Symbols

    Symbol Name                              Value     Ov Type        Size  Object(Section)

    BuildAttributes$$THM_ISAv4$E$P$D$K$B$S$7EM$VFPi3$EXTD16$VFPS$VFMA$PE$A:L22UL41UL21$X:L11$S22US41US21$IEEE1$IW$USESV6$~STKCKD$USESV7$~SHL$OTIME$ROPI$IEEEX$EBA8$UX$STANDARDLIB$REQ8$PRES8$EABIv2 0x00000000   Number         0  anon$$obj.o ABSOLUTE
    __ARM_use_no_argv                        0x00000000   Number         0  main.o ABSOLUTE
    __ARM_exceptions_init                     - Undefined Weak Reference
    __alloca_initialize                       - Undefined Weak Reference
    __arm_preinit_                            - Undefined Weak Reference
    __cpp_initialize__aeabi_                  - Undefined Weak Reference
    __cxa_finalize                            - Undefined Weak Reference
    __rt_locale                               - Undefined Weak Reference
    __sigvec_lookup                           - Undefined Weak Reference
    _atexit_init                              - Undefined Weak Reference
    _call_atexit_fns                          - Undefined Weak Reference
    _clock_init                               - Undefined Weak Reference
    _fp_trap_init                             - Undefined Weak Reference
    _fp_trap_shutdown                         - Undefined Weak Reference
    _get_lc_collate                           - Undefined Weak Reference
    _get_lc_ctype                             - Undefined Weak Reference
    _get_lc_monetary                          - Undefined Weak Reference
    _get_lc_numeric                           - Undefined Weak Reference
    _get_lc_time                              - Undefined Weak Reference
    _getenv_init                              - Undefined Weak Reference
    _handle_redirection                       - Undefined Weak Reference
    _init_alloc                               - Undefined Weak Reference
    _init_user_alloc                          - Undefined Weak Reference
    _initio                                   - Undefined Weak Reference
    _rand_init                                - Undefined Weak Reference
    _signal_finish                            - Undefined Weak Reference
    _signal_init                              - Undefined Weak Reference
    _terminate_alloc                          - Undefined Weak Reference
    _terminate_user_alloc                     - Undefined Weak Reference
    _terminateio                              - Undefined Weak Reference
    __Vectors_Size                           0x00000188   Number         0  startup_stm32f40_41xxx.o ABSOLUTE
    __Vectors                                0x08000000   Data           4  startup_stm32f40_41xxx.o(RESET)
    __Vectors_End                            0x08000188   Data           0  startup_stm32f40_41xxx.o(RESET)
    __main                                   0x08000189   Thumb Code     8  __main.o(!!!main)
    __scatterload                            0x08000191   Thumb Code     0  __scatter.o(!!!scatter)
    __scatterload_rt2                        0x08000191   Thumb Code    44  __scatter.o(!!!scatter)
    __scatterload_rt2_thumb_only             0x08000191   Thumb Code     0  __scatter.o(!!!scatter)
    __scatterload_null                       0x0800019f   Thumb Code     0  __scatter.o(!!!scatter)
    __decompress                             0x080001c5   Thumb Code    90  __dczerorl2.o(!!dczerorl2)
    __decompress1                            0x080001c5   Thumb Code     0  __dczerorl2.o(!!dczerorl2)
    __scatterload_zeroinit                   0x08000221   Thumb Code    28  __scatter_zi.o(!!handler_zi)
    __rt_lib_init                            0x0800023d   Thumb Code     0  libinit.o(.ARM.Collect$$libinit$$00000000)
    __rt_lib_init_fp_1                       0x0800023f   Thumb Code     0  libinit2.o(.ARM.Collect$$libinit$$00000001)
    __rt_lib_init_alloca_1                   0x08000243   Thumb Code     0  libinit2.o(.ARM.Collect$$libinit$$0000002E)
    __rt_lib_init_argv_1                     0x08000243   Thumb Code     0  libinit2.o(.ARM.Collect$$libinit$$0000002C)
    __rt_lib_init_atexit_1                   0x08000243   Thumb Code     0  libinit2.o(.ARM.Collect$$libinit$$0000001B)
    __rt_lib_init_clock_1                    0x08000243   Thumb Code     0  libinit2.o(.ARM.Collect$$libinit$$00000021)
    __rt_lib_init_cpp_1                      0x08000243   Thumb Code     0  libinit2.o(.ARM.Collect$$libinit$$00000032)
    __rt_lib_init_exceptions_1               0x08000243   Thumb Code     0  libinit2.o(.ARM.Collect$$libinit$$00000030)
    __rt_lib_init_fp_trap_1                  0x08000243   Thumb Code     0  libinit2.o(.ARM.Collect$$libinit$$0000001F)
    __rt_lib_init_getenv_1                   0x08000243   Thumb Code     0  libinit2.o(.ARM.Collect$$libinit$$00000023)
    __rt_lib_init_heap_1                     0x08000243   Thumb Code     0  libinit2.o(.ARM.Collect$$libinit$$0000000A)
    __rt_lib_init_lc_collate_1               0x08000243   Thumb Code     0  libinit2.o(.ARM.Collect$$libinit$$00000011)
    __rt_lib_init_lc_ctype_1                 0x08000243   Thumb Code     0  libinit2.o(.ARM.Collect$$libinit$$00000013)
    __rt_lib_init_lc_monetary_1              0x08000243   Thumb Code     0  libinit2.o(.ARM.Collect$$libinit$$00000015)
    __rt_lib_init_lc_numeric_1               0x08000243   Thumb Code     0  libinit2.o(.ARM.Collect$$libinit$$00000017)
    __rt_lib_init_lc_time_1                  0x08000243   Thumb Code     0  libinit2.o(.ARM.Collect$$libinit$$00000019)
    __rt_lib_init_preinit_1                  0x08000243   Thumb Code     0  libinit2.o(.ARM.Collect$$libinit$$00000004)
    __rt_lib_init_rand_1                     0x08000243   Thumb Code     0  libinit2.o(.ARM.Collect$$libinit$$0000000E)
    __rt_lib_init_return                     0x08000243   Thumb Code     0  libinit2.o(.ARM.Collect$$libinit$$00000033)
    __rt_lib_init_signal_1                   0x08000243   Thumb Code     0  libinit2.o(.ARM.Collect$$libinit$$0000001D)
    __rt_lib_init_stdio_1                    0x08000243   Thumb Code     0  libinit2.o(.ARM.Collect$$libinit$$00000025)
    __rt_lib_init_user_alloc_1               0x08000243   Thumb Code     0  libinit2.o(.ARM.Collect$$libinit$$0000000C)
    __rt_lib_shutdown                        0x08000245   Thumb Code     0  libshutdown.o(.ARM.Collect$$libshutdown$$00000000)
    __rt_lib_shutdown_cpp_1                  0x08000247   Thumb Code     0  libshutdown2.o(.ARM.Collect$$libshutdown$$00000002)
    __rt_lib_shutdown_fp_trap_1              0x08000247   Thumb Code     0  libshutdown2.o(.ARM.Collect$$libshutdown$$00000007)
    __rt_lib_shutdown_heap_1                 0x08000247   Thumb Code     0  libshutdown2.o(.ARM.Collect$$libshutdown$$0000000F)
    __rt_lib_shutdown_return                 0x08000247   Thumb Code     0  libshutdown2.o(.ARM.Collect$$libshutdown$$00000010)
    __rt_lib_shutdown_signal_1               0x08000247   Thumb Code     0  libshutdown2.o(.ARM.Collect$$libshutdown$$0000000A)
    __rt_lib_shutdown_stdio_1                0x08000247   Thumb Code     0  libshutdown2.o(.ARM.Collect$$libshutdown$$00000004)
    __rt_lib_shutdown_user_alloc_1           0x08000247   Thumb Code     0  libshutdown2.o(.ARM.Collect$$libshutdown$$0000000C)
    __rt_entry                               0x08000249   Thumb Code     0  __rtentry.o(.ARM.Collect$$rtentry$$00000000)
    __rt_entry_presh_1                       0x08000249   Thumb Code     0  __rtentry2.o(.ARM.Collect$$rtentry$$00000002)
    __rt_entry_sh                            0x08000249   Thumb Code     0  __rtentry4.o(.ARM.Collect$$rtentry$$00000004)
    __rt_entry_li                            0x0800024f   Thumb Code     0  __rtentry2.o(.ARM.Collect$$rtentry$$0000000A)
    __rt_entry_postsh_1                      0x0800024f   Thumb Code     0  __rtentry2.o(.ARM.Collect$$rtentry$$00000009)
    __rt_entry_main                          0x08000253   Thumb Code     0  __rtentry2.o(.ARM.Collect$$rtentry$$0000000D)
    __rt_entry_postli_1                      0x08000253   Thumb Code     0  __rtentry2.o(.ARM.Collect$$rtentry$$0000000C)
    __rt_exit                                0x0800025b   Thumb Code     0  rtexit.o(.ARM.Collect$$rtexit$$00000000)
    __rt_exit_ls                             0x0800025d   Thumb Code     0  rtexit2.o(.ARM.Collect$$rtexit$$00000003)
    __rt_exit_prels_1                        0x0800025d   Thumb Code     0  rtexit2.o(.ARM.Collect$$rtexit$$00000002)
    __rt_exit_exit                           0x08000261   Thumb Code     0  rtexit2.o(.ARM.Collect$$rtexit$$00000004)
    fusion_task                              0x08000269   Thumb Code  1144  ucos_task.o(.text)
    pose_fusion_task                         0x080006e1   Thumb Code   188  ucos_task.o(.text)
    brain_task                               0x0800079d   Thumb Code  3356  ucos_task.o(.text)
    uart_task                                0x080014b9   Thumb Code  2792  ucos_task.o(.text)
    tmr1_callback                            0x08001fa1   Thumb Code    44  ucos_task.o(.text)
    tmr2_callback                            0x08001fcd   Thumb Code   252  ucos_task.o(.text)
    start_task                               0x080020d9   Thumb Code   192  main.o(.text)
    main                                     0x08002199   Thumb Code   268  main.o(.text)
    flags_task                               0x080022a5   Thumb Code    38  main.o(.text)
    NMI_Handler                              0x0800232d   Thumb Code     2  stm32f4xx_it.o(.text)
    HardFault_Handler                        0x0800232f   Thumb Code    10  stm32f4xx_it.o(.text)
    MemManage_Handler                        0x08002339   Thumb Code     4  stm32f4xx_it.o(.text)
    BusFault_Handler                         0x0800233d   Thumb Code     4  stm32f4xx_it.o(.text)
    UsageFault_Handler                       0x08002341   Thumb Code     4  stm32f4xx_it.o(.text)
    SVC_Handler                              0x08002345   Thumb Code     2  stm32f4xx_it.o(.text)
    DebugMon_Handler                         0x08002347   Thumb Code     2  stm32f4xx_it.o(.text)
    SystemInit                               0x08002429   Thumb Code    88  system_stm32f4xx.o(.text)
    SystemCoreClockUpdate                    0x08002481   Thumb Code   174  system_stm32f4xx.o(.text)
    Reset_Handler                            0x0800255d   Thumb Code     8  startup_stm32f40_41xxx.o(.text)
    ADC_IRQHandler                           0x08002577   Thumb Code     0  startup_stm32f40_41xxx.o(.text)
    CAN1_RX0_IRQHandler                      0x08002577   Thumb Code     0  startup_stm32f40_41xxx.o(.text)
    CAN1_RX1_IRQHandler                      0x08002577   Thumb Code     0  startup_stm32f40_41xxx.o(.text)
    CAN1_SCE_IRQHandler                      0x08002577   Thumb Code     0  startup_stm32f40_41xxx.o(.text)
    CAN1_TX_IRQHandler                       0x08002577   Thumb Code     0  startup_stm32f40_41xxx.o(.text)
    CAN2_RX0_IRQHandler                      0x08002577   Thumb Code     0  startup_stm32f40_41xxx.o(.text)
    CAN2_RX1_IRQHandler                      0x08002577   Thumb Code     0  startup_stm32f40_41xxx.o(.text)
    CAN2_SCE_IRQHandler                      0x08002577   Thumb Code     0  startup_stm32f40_41xxx.o(.text)
    CAN2_TX_IRQHandler                       0x08002577   Thumb Code     0  startup_stm32f40_41xxx.o(.text)
    CRYP_IRQHandler                          0x08002577   Thumb Code     0  startup_stm32f40_41xxx.o(.text)
    DCMI_IRQHandler                          0x08002577   Thumb Code     0  startup_stm32f40_41xxx.o(.text)
    DMA1_Stream0_IRQHandler                  0x08002577   Thumb Code     0  startup_stm32f40_41xxx.o(.text)
    DMA1_Stream1_IRQHandler                  0x08002577   Thumb Code     0  startup_stm32f40_41xxx.o(.text)
    DMA1_Stream2_IRQHandler                  0x08002577   Thumb Code     0  startup_stm32f40_41xxx.o(.text)
    DMA1_Stream3_IRQHandler                  0x08002577   Thumb Code     0  startup_stm32f40_41xxx.o(.text)
    DMA1_Stream4_IRQHandler                  0x08002577   Thumb Code     0  startup_stm32f40_41xxx.o(.text)
    DMA1_Stream5_IRQHandler                  0x08002577   Thumb Code     0  startup_stm32f40_41xxx.o(.text)
    DMA1_Stream6_IRQHandler                  0x08002577   Thumb Code     0  startup_stm32f40_41xxx.o(.text)
    DMA1_Stream7_IRQHandler                  0x08002577   Thumb Code     0  startup_stm32f40_41xxx.o(.text)
    DMA2_Stream0_IRQHandler                  0x08002577   Thumb Code     0  startup_stm32f40_41xxx.o(.text)
    DMA2_Stream1_IRQHandler                  0x08002577   Thumb Code     0  startup_stm32f40_41xxx.o(.text)
    DMA2_Stream2_IRQHandler                  0x08002577   Thumb Code     0  startup_stm32f40_41xxx.o(.text)
    DMA2_Stream3_IRQHandler                  0x08002577   Thumb Code     0  startup_stm32f40_41xxx.o(.text)
    DMA2_Stream4_IRQHandler                  0x08002577   Thumb Code     0  startup_stm32f40_41xxx.o(.text)
    DMA2_Stream5_IRQHandler                  0x08002577   Thumb Code     0  startup_stm32f40_41xxx.o(.text)
    DMA2_Stream6_IRQHandler                  0x08002577   Thumb Code     0  startup_stm32f40_41xxx.o(.text)
    DMA2_Stream7_IRQHandler                  0x08002577   Thumb Code     0  startup_stm32f40_41xxx.o(.text)
    ETH_IRQHandler                           0x08002577   Thumb Code     0  startup_stm32f40_41xxx.o(.text)
    ETH_WKUP_IRQHandler                      0x08002577   Thumb Code     0  startup_stm32f40_41xxx.o(.text)
    EXTI0_IRQHandler                         0x08002577   Thumb Code     0  startup_stm32f40_41xxx.o(.text)
    EXTI15_10_IRQHandler                     0x08002577   Thumb Code     0  startup_stm32f40_41xxx.o(.text)
    EXTI1_IRQHandler                         0x08002577   Thumb Code     0  startup_stm32f40_41xxx.o(.text)
    EXTI2_IRQHandler                         0x08002577   Thumb Code     0  startup_stm32f40_41xxx.o(.text)
    EXTI3_IRQHandler                         0x08002577   Thumb Code     0  startup_stm32f40_41xxx.o(.text)
    EXTI4_IRQHandler                         0x08002577   Thumb Code     0  startup_stm32f40_41xxx.o(.text)
    EXTI9_5_IRQHandler                       0x08002577   Thumb Code     0  startup_stm32f40_41xxx.o(.text)
    FLASH_IRQHandler                         0x08002577   Thumb Code     0  startup_stm32f40_41xxx.o(.text)
    FPU_IRQHandler                           0x08002577   Thumb Code     0  startup_stm32f40_41xxx.o(.text)
    FSMC_IRQHandler                          0x08002577   Thumb Code     0  startup_stm32f40_41xxx.o(.text)
    HASH_RNG_IRQHandler                      0x08002577   Thumb Code     0  startup_stm32f40_41xxx.o(.text)
    I2C1_ER_IRQHandler                       0x08002577   Thumb Code     0  startup_stm32f40_41xxx.o(.text)
    I2C1_EV_IRQHandler                       0x08002577   Thumb Code     0  startup_stm32f40_41xxx.o(.text)
    I2C2_ER_IRQHandler                       0x08002577   Thumb Code     0  startup_stm32f40_41xxx.o(.text)
    I2C2_EV_IRQHandler                       0x08002577   Thumb Code     0  startup_stm32f40_41xxx.o(.text)
    I2C3_ER_IRQHandler                       0x08002577   Thumb Code     0  startup_stm32f40_41xxx.o(.text)
    I2C3_EV_IRQHandler                       0x08002577   Thumb Code     0  startup_stm32f40_41xxx.o(.text)
    OTG_FS_IRQHandler                        0x08002577   Thumb Code     0  startup_stm32f40_41xxx.o(.text)
    OTG_FS_WKUP_IRQHandler                   0x08002577   Thumb Code     0  startup_stm32f40_41xxx.o(.text)
    OTG_HS_EP1_IN_IRQHandler                 0x08002577   Thumb Code     0  startup_stm32f40_41xxx.o(.text)
    OTG_HS_EP1_OUT_IRQHandler                0x08002577   Thumb Code     0  startup_stm32f40_41xxx.o(.text)
    OTG_HS_IRQHandler                        0x08002577   Thumb Code     0  startup_stm32f40_41xxx.o(.text)
    OTG_HS_WKUP_IRQHandler                   0x08002577   Thumb Code     0  startup_stm32f40_41xxx.o(.text)
    PVD_IRQHandler                           0x08002577   Thumb Code     0  startup_stm32f40_41xxx.o(.text)
    RCC_IRQHandler                           0x08002577   Thumb Code     0  startup_stm32f40_41xxx.o(.text)
    RTC_Alarm_IRQHandler                     0x08002577   Thumb Code     0  startup_stm32f40_41xxx.o(.text)
    RTC_WKUP_IRQHandler                      0x08002577   Thumb Code     0  startup_stm32f40_41xxx.o(.text)
    SDIO_IRQHandler                          0x08002577   Thumb Code     0  startup_stm32f40_41xxx.o(.text)
    SPI1_IRQHandler                          0x08002577   Thumb Code     0  startup_stm32f40_41xxx.o(.text)
    SPI2_IRQHandler                          0x08002577   Thumb Code     0  startup_stm32f40_41xxx.o(.text)
    SPI3_IRQHandler                          0x08002577   Thumb Code     0  startup_stm32f40_41xxx.o(.text)
    TAMP_STAMP_IRQHandler                    0x08002577   Thumb Code     0  startup_stm32f40_41xxx.o(.text)
    TIM1_BRK_TIM9_IRQHandler                 0x08002577   Thumb Code     0  startup_stm32f40_41xxx.o(.text)
    TIM1_CC_IRQHandler                       0x08002577   Thumb Code     0  startup_stm32f40_41xxx.o(.text)
    TIM1_TRG_COM_TIM11_IRQHandler            0x08002577   Thumb Code     0  startup_stm32f40_41xxx.o(.text)
    TIM1_UP_TIM10_IRQHandler                 0x08002577   Thumb Code     0  startup_stm32f40_41xxx.o(.text)
    TIM2_IRQHandler                          0x08002577   Thumb Code     0  startup_stm32f40_41xxx.o(.text)
    TIM3_IRQHandler                          0x08002577   Thumb Code     0  startup_stm32f40_41xxx.o(.text)
    TIM4_IRQHandler                          0x08002577   Thumb Code     0  startup_stm32f40_41xxx.o(.text)
    TIM5_IRQHandler                          0x08002577   Thumb Code     0  startup_stm32f40_41xxx.o(.text)
    TIM6_DAC_IRQHandler                      0x08002577   Thumb Code     0  startup_stm32f40_41xxx.o(.text)
    TIM7_IRQHandler                          0x08002577   Thumb Code     0  startup_stm32f40_41xxx.o(.text)
    TIM8_BRK_TIM12_IRQHandler                0x08002577   Thumb Code     0  startup_stm32f40_41xxx.o(.text)
    TIM8_CC_IRQHandler                       0x08002577   Thumb Code     0  startup_stm32f40_41xxx.o(.text)
    TIM8_TRG_COM_TIM14_IRQHandler            0x08002577   Thumb Code     0  startup_stm32f40_41xxx.o(.text)
    TIM8_UP_TIM13_IRQHandler                 0x08002577   Thumb Code     0  startup_stm32f40_41xxx.o(.text)
    USART6_IRQHandler                        0x08002577   Thumb Code     0  startup_stm32f40_41xxx.o(.text)
    WWDG_IRQHandler                          0x08002577   Thumb Code     0  startup_stm32f40_41xxx.o(.text)
    __user_initial_stackheap                 0x08002579   Thumb Code     0  startup_stm32f40_41xxx.o(.text)
    SysTick_Handler                          0x0800259d   Thumb Code    16  delay.o(.text)
    delay_init                               0x080025ad   Thumb Code    76  delay.o(.text)
    delay_us                                 0x080025f9   Thumb Code    86  delay.o(.text)
    delay_ms                                 0x0800264f   Thumb Code    68  delay.o(.text)
    NVIC_PriorityGroupConfig                 0x080026a5   Thumb Code    10  misc.o(.text)
    NVIC_Init                                0x080026af   Thumb Code   106  misc.o(.text)
    NVIC_SetVectorTable                      0x08002719   Thumb Code    14  misc.o(.text)
    NVIC_SystemLPConfig                      0x08002727   Thumb Code    34  misc.o(.text)
    SysTick_CLKSourceConfig                  0x08002749   Thumb Code    40  misc.o(.text)
    GPIO_DeInit                              0x08002785   Thumb Code   268  stm32f4xx_gpio.o(.text)
    GPIO_Init                                0x08002891   Thumb Code   144  stm32f4xx_gpio.o(.text)
    GPIO_StructInit                          0x08002921   Thumb Code    18  stm32f4xx_gpio.o(.text)
    GPIO_PinLockConfig                       0x08002933   Thumb Code    34  stm32f4xx_gpio.o(.text)
    GPIO_ReadInputDataBit                    0x08002955   Thumb Code    18  stm32f4xx_gpio.o(.text)
    GPIO_ReadInputData                       0x08002967   Thumb Code     8  stm32f4xx_gpio.o(.text)
    GPIO_ReadOutputDataBit                   0x0800296f   Thumb Code    18  stm32f4xx_gpio.o(.text)
    GPIO_ReadOutputData                      0x08002981   Thumb Code     8  stm32f4xx_gpio.o(.text)
    GPIO_SetBits                             0x08002989   Thumb Code     4  stm32f4xx_gpio.o(.text)
    GPIO_ResetBits                           0x0800298d   Thumb Code     4  stm32f4xx_gpio.o(.text)
    GPIO_WriteBit                            0x08002991   Thumb Code    10  stm32f4xx_gpio.o(.text)
    GPIO_Write                               0x0800299b   Thumb Code     4  stm32f4xx_gpio.o(.text)
    GPIO_ToggleBits                          0x0800299f   Thumb Code     8  stm32f4xx_gpio.o(.text)
    GPIO_PinAFConfig                         0x080029a7   Thumb Code    70  stm32f4xx_gpio.o(.text)
    RCC_DeInit                               0x08002a19   Thumb Code    82  stm32f4xx_rcc.o(.text)
    RCC_HSEConfig                            0x08002a6b   Thumb Code    14  stm32f4xx_rcc.o(.text)
    RCC_GetFlagStatus                        0x08002a79   Thumb Code    60  stm32f4xx_rcc.o(.text)
    RCC_WaitForHSEStartUp                    0x08002ab5   Thumb Code    56  stm32f4xx_rcc.o(.text)
    RCC_AdjustHSICalibrationValue            0x08002aed   Thumb Code    20  stm32f4xx_rcc.o(.text)
    RCC_HSICmd                               0x08002b01   Thumb Code     6  stm32f4xx_rcc.o(.text)
    RCC_LSEConfig                            0x08002b07   Thumb Code    46  stm32f4xx_rcc.o(.text)
    RCC_LSICmd                               0x08002b35   Thumb Code     6  stm32f4xx_rcc.o(.text)
    RCC_PLLConfig                            0x08002b3b   Thumb Code    32  stm32f4xx_rcc.o(.text)
    RCC_PLLCmd                               0x08002b5b   Thumb Code     6  stm32f4xx_rcc.o(.text)
    RCC_PLLI2SConfig                         0x08002b61   Thumb Code    14  stm32f4xx_rcc.o(.text)
    RCC_PLLI2SCmd                            0x08002b6f   Thumb Code     6  stm32f4xx_rcc.o(.text)
    RCC_PLLSAIConfig                         0x08002b75   Thumb Code    20  stm32f4xx_rcc.o(.text)
    RCC_PLLSAICmd                            0x08002b89   Thumb Code     6  stm32f4xx_rcc.o(.text)
    RCC_ClockSecuritySystemCmd               0x08002b8f   Thumb Code     6  stm32f4xx_rcc.o(.text)
    RCC_MCO1Config                           0x08002b95   Thumb Code    28  stm32f4xx_rcc.o(.text)
    RCC_MCO2Config                           0x08002bb1   Thumb Code    28  stm32f4xx_rcc.o(.text)
    RCC_SYSCLKConfig                         0x08002bcd   Thumb Code    20  stm32f4xx_rcc.o(.text)
    RCC_GetSYSCLKSource                      0x08002be1   Thumb Code    12  stm32f4xx_rcc.o(.text)
    RCC_HCLKConfig                           0x08002bed   Thumb Code    20  stm32f4xx_rcc.o(.text)
    RCC_PCLK1Config                          0x08002c01   Thumb Code    20  stm32f4xx_rcc.o(.text)
    RCC_PCLK2Config                          0x08002c15   Thumb Code    22  stm32f4xx_rcc.o(.text)
    RCC_GetClocksFreq                        0x08002c2b   Thumb Code   222  stm32f4xx_rcc.o(.text)
    RCC_RTCCLKConfig                         0x08002d09   Thumb Code    54  stm32f4xx_rcc.o(.text)
    RCC_RTCCLKCmd                            0x08002d3f   Thumb Code     8  stm32f4xx_rcc.o(.text)
    RCC_BackupResetCmd                       0x08002d47   Thumb Code     8  stm32f4xx_rcc.o(.text)
    RCC_I2SCLKConfig                         0x08002d4f   Thumb Code     6  stm32f4xx_rcc.o(.text)
    RCC_SAIPLLI2SClkDivConfig                0x08002d55   Thumb Code    26  stm32f4xx_rcc.o(.text)
    RCC_SAIPLLSAIClkDivConfig                0x08002d6f   Thumb Code    28  stm32f4xx_rcc.o(.text)
    RCC_SAIBlockACLKConfig                   0x08002d8b   Thumb Code    20  stm32f4xx_rcc.o(.text)
    RCC_SAIBlockBCLKConfig                   0x08002d9f   Thumb Code    20  stm32f4xx_rcc.o(.text)
    RCC_LTDCCLKDivConfig                     0x08002db3   Thumb Code    20  stm32f4xx_rcc.o(.text)
    RCC_TIMCLKPresConfig                     0x08002dc7   Thumb Code     6  stm32f4xx_rcc.o(.text)
    RCC_AHB1PeriphClockCmd                   0x08002dcd   Thumb Code    34  stm32f4xx_rcc.o(.text)
    RCC_AHB2PeriphClockCmd                   0x08002def   Thumb Code    78  stm32f4xx_rcc.o(.text)
    RCC_AHB3PeriphClockCmd                   0x08002e3d   Thumb Code    34  stm32f4xx_rcc.o(.text)
    RCC_APB1PeriphClockCmd                   0x08002e5f   Thumb Code    34  stm32f4xx_rcc.o(.text)
    RCC_APB2PeriphClockCmd                   0x08002e81   Thumb Code    34  stm32f4xx_rcc.o(.text)
    RCC_AHB1PeriphResetCmd                   0x08002ea3   Thumb Code    34  stm32f4xx_rcc.o(.text)
    RCC_AHB2PeriphResetCmd                   0x08002ec5   Thumb Code    34  stm32f4xx_rcc.o(.text)
    RCC_AHB3PeriphResetCmd                   0x08002ee7   Thumb Code    34  stm32f4xx_rcc.o(.text)
    RCC_APB1PeriphResetCmd                   0x08002f09   Thumb Code    34  stm32f4xx_rcc.o(.text)
    RCC_APB2PeriphResetCmd                   0x08002f2b   Thumb Code    34  stm32f4xx_rcc.o(.text)
    RCC_AHB1PeriphClockLPModeCmd             0x08002f4d   Thumb Code    34  stm32f4xx_rcc.o(.text)
    RCC_AHB2PeriphClockLPModeCmd             0x08002f6f   Thumb Code    34  stm32f4xx_rcc.o(.text)
    RCC_AHB3PeriphClockLPModeCmd             0x08002f91   Thumb Code    34  stm32f4xx_rcc.o(.text)
    RCC_APB1PeriphClockLPModeCmd             0x08002fb3   Thumb Code    34  stm32f4xx_rcc.o(.text)
    RCC_APB2PeriphClockLPModeCmd             0x08002fd5   Thumb Code    34  stm32f4xx_rcc.o(.text)
    RCC_LSEModeConfig                        0x08002ff7   Thumb Code    40  stm32f4xx_rcc.o(.text)
    RCC_ITConfig                             0x0800301f   Thumb Code    34  stm32f4xx_rcc.o(.text)
    RCC_ClearFlag                            0x08003041   Thumb Code    18  stm32f4xx_rcc.o(.text)
    RCC_GetITStatus                          0x08003053   Thumb Code    22  stm32f4xx_rcc.o(.text)
    RCC_ClearITPendingBit                    0x08003069   Thumb Code     8  stm32f4xx_rcc.o(.text)
    USART_DeInit                             0x08003075   Thumb Code   206  stm32f4xx_usart.o(.text)
    USART_Init                               0x08003143   Thumb Code   204  stm32f4xx_usart.o(.text)
    USART_StructInit                         0x0800320f   Thumb Code    24  stm32f4xx_usart.o(.text)
    USART_ClockInit                          0x08003227   Thumb Code    32  stm32f4xx_usart.o(.text)
    USART_ClockStructInit                    0x08003247   Thumb Code    12  stm32f4xx_usart.o(.text)
    USART_Cmd                                0x08003253   Thumb Code    24  stm32f4xx_usart.o(.text)
    USART_SetPrescaler                       0x0800326b   Thumb Code    16  stm32f4xx_usart.o(.text)
    USART_OverSampling8Cmd                   0x0800327b   Thumb Code    22  stm32f4xx_usart.o(.text)
    USART_OneBitMethodCmd                    0x08003291   Thumb Code    24  stm32f4xx_usart.o(.text)
    USART_SendData                           0x080032a9   Thumb Code     8  stm32f4xx_usart.o(.text)
    USART_ReceiveData                        0x080032b1   Thumb Code    10  stm32f4xx_usart.o(.text)
    USART_SetAddress                         0x080032bb   Thumb Code    18  stm32f4xx_usart.o(.text)
    USART_ReceiverWakeUpCmd                  0x080032cd   Thumb Code    24  stm32f4xx_usart.o(.text)
    USART_WakeUpConfig                       0x080032e5   Thumb Code    18  stm32f4xx_usart.o(.text)
    USART_LINBreakDetectLengthConfig         0x080032f7   Thumb Code    18  stm32f4xx_usart.o(.text)
    USART_LINCmd                             0x08003309   Thumb Code    24  stm32f4xx_usart.o(.text)
    USART_SendBreak                          0x08003321   Thumb Code    10  stm32f4xx_usart.o(.text)
    USART_HalfDuplexCmd                      0x0800332b   Thumb Code    24  stm32f4xx_usart.o(.text)
    USART_SetGuardTime                       0x08003343   Thumb Code    16  stm32f4xx_usart.o(.text)
    USART_SmartCardCmd                       0x08003353   Thumb Code    24  stm32f4xx_usart.o(.text)
    USART_SmartCardNACKCmd                   0x0800336b   Thumb Code    24  stm32f4xx_usart.o(.text)
    USART_IrDAConfig                         0x08003383   Thumb Code    18  stm32f4xx_usart.o(.text)
    USART_IrDACmd                            0x08003395   Thumb Code    24  stm32f4xx_usart.o(.text)
    USART_DMACmd                             0x080033ad   Thumb Code    18  stm32f4xx_usart.o(.text)
    USART_ITConfig                           0x080033bf   Thumb Code    74  stm32f4xx_usart.o(.text)
    USART_GetFlagStatus                      0x08003409   Thumb Code    26  stm32f4xx_usart.o(.text)
    USART_ClearFlag                          0x08003423   Thumb Code    18  stm32f4xx_usart.o(.text)
    USART_GetITStatus                        0x08003435   Thumb Code   118  stm32f4xx_usart.o(.text)
    USART_ClearITPendingBit                  0x080034ab   Thumb Code    30  stm32f4xx_usart.o(.text)
    TIM_DeInit                               0x080034c9   Thumb Code   346  stm32f4xx_tim.o(.text)
    TIM_TimeBaseInit                         0x08003623   Thumb Code   104  stm32f4xx_tim.o(.text)
    TIM_TimeBaseStructInit                   0x0800368b   Thumb Code    18  stm32f4xx_tim.o(.text)
    TIM_PrescalerConfig                      0x0800369d   Thumb Code     6  stm32f4xx_tim.o(.text)
    TIM_CounterModeConfig                    0x080036a3   Thumb Code    18  stm32f4xx_tim.o(.text)
    TIM_SetCounter                           0x080036b5   Thumb Code     4  stm32f4xx_tim.o(.text)
    TIM_SetAutoreload                        0x080036b9   Thumb Code     4  stm32f4xx_tim.o(.text)
    TIM_GetCounter                           0x080036bd   Thumb Code     6  stm32f4xx_tim.o(.text)
    TIM_GetPrescaler                         0x080036c3   Thumb Code     6  stm32f4xx_tim.o(.text)
    TIM_UpdateDisableConfig                  0x080036c9   Thumb Code    24  stm32f4xx_tim.o(.text)
    TIM_UpdateRequestConfig                  0x080036e1   Thumb Code    24  stm32f4xx_tim.o(.text)
    TIM_ARRPreloadConfig                     0x080036f9   Thumb Code    24  stm32f4xx_tim.o(.text)
    TIM_SelectOnePulseMode                   0x08003711   Thumb Code    18  stm32f4xx_tim.o(.text)
    TIM_SetClockDivision                     0x08003723   Thumb Code    18  stm32f4xx_tim.o(.text)
    TIM_Cmd                                  0x08003735   Thumb Code    24  stm32f4xx_tim.o(.text)
    TIM_OC1Init                              0x0800374d   Thumb Code   114  stm32f4xx_tim.o(.text)
    TIM_OC2Init                              0x080037bf   Thumb Code   154  stm32f4xx_tim.o(.text)
    TIM_OC3Init                              0x08003859   Thumb Code   204  stm32f4xx_tim.o(.text)
    TIM_OC4Init                              0x08003925   Thumb Code   112  stm32f4xx_tim.o(.text)
    TIM_OCStructInit                         0x08003995   Thumb Code    20  stm32f4xx_tim.o(.text)
    TIM_SelectOCxM                           0x080039a9   Thumb Code    86  stm32f4xx_tim.o(.text)
    TIM_SetCompare1                          0x080039ff   Thumb Code     4  stm32f4xx_tim.o(.text)
    TIM_SetCompare2                          0x08003a03   Thumb Code     4  stm32f4xx_tim.o(.text)
    TIM_SetCompare3                          0x08003a07   Thumb Code     4  stm32f4xx_tim.o(.text)
    TIM_SetCompare4                          0x08003a0b   Thumb Code     4  stm32f4xx_tim.o(.text)
    TIM_ForcedOC1Config                      0x08003a0f   Thumb Code    18  stm32f4xx_tim.o(.text)
    TIM_ForcedOC2Config                      0x08003a21   Thumb Code    26  stm32f4xx_tim.o(.text)
    TIM_ForcedOC3Config                      0x08003a3b   Thumb Code    18  stm32f4xx_tim.o(.text)
    TIM_ForcedOC4Config                      0x08003a4d   Thumb Code    26  stm32f4xx_tim.o(.text)
    TIM_OC1PreloadConfig                     0x08003a67   Thumb Code    18  stm32f4xx_tim.o(.text)
    TIM_OC2PreloadConfig                     0x08003a79   Thumb Code    26  stm32f4xx_tim.o(.text)
    TIM_OC3PreloadConfig                     0x08003a93   Thumb Code    18  stm32f4xx_tim.o(.text)
    TIM_OC4PreloadConfig                     0x08003aa5   Thumb Code    26  stm32f4xx_tim.o(.text)
    TIM_OC1FastConfig                        0x08003abf   Thumb Code    18  stm32f4xx_tim.o(.text)
    TIM_OC2FastConfig                        0x08003ad1   Thumb Code    26  stm32f4xx_tim.o(.text)
    TIM_OC3FastConfig                        0x08003aeb   Thumb Code    18  stm32f4xx_tim.o(.text)
    TIM_OC4FastConfig                        0x08003afd   Thumb Code    26  stm32f4xx_tim.o(.text)
    TIM_ClearOC1Ref                          0x08003b17   Thumb Code    18  stm32f4xx_tim.o(.text)
    TIM_ClearOC2Ref                          0x08003b29   Thumb Code    24  stm32f4xx_tim.o(.text)
    TIM_ClearOC3Ref                          0x08003b41   Thumb Code    18  stm32f4xx_tim.o(.text)
    TIM_ClearOC4Ref                          0x08003b53   Thumb Code    24  stm32f4xx_tim.o(.text)
    TIM_OC1PolarityConfig                    0x08003b6b   Thumb Code    18  stm32f4xx_tim.o(.text)
    TIM_OC1NPolarityConfig                   0x08003b7d   Thumb Code    18  stm32f4xx_tim.o(.text)
    TIM_OC2PolarityConfig                    0x08003b8f   Thumb Code    26  stm32f4xx_tim.o(.text)
    TIM_OC2NPolarityConfig                   0x08003ba9   Thumb Code    26  stm32f4xx_tim.o(.text)
    TIM_OC3PolarityConfig                    0x08003bc3   Thumb Code    26  stm32f4xx_tim.o(.text)
    TIM_OC3NPolarityConfig                   0x08003bdd   Thumb Code    26  stm32f4xx_tim.o(.text)
    TIM_OC4PolarityConfig                    0x08003bf7   Thumb Code    26  stm32f4xx_tim.o(.text)
    TIM_CCxCmd                               0x08003c11   Thumb Code    30  stm32f4xx_tim.o(.text)
    TIM_CCxNCmd                              0x08003c2f   Thumb Code    30  stm32f4xx_tim.o(.text)
    TIM_SetIC4Prescaler                      0x08003c4d   Thumb Code    26  stm32f4xx_tim.o(.text)
    TIM_SetIC3Prescaler                      0x08003cb7   Thumb Code    18  stm32f4xx_tim.o(.text)
    TIM_SetIC2Prescaler                      0x08003d11   Thumb Code    26  stm32f4xx_tim.o(.text)
    TIM_SetIC1Prescaler                      0x08003d85   Thumb Code    18  stm32f4xx_tim.o(.text)
    TIM_ICInit                               0x08003dd1   Thumb Code   110  stm32f4xx_tim.o(.text)
    TIM_ICStructInit                         0x08003e3f   Thumb Code    18  stm32f4xx_tim.o(.text)
    TIM_PWMIConfig                           0x08003e51   Thumb Code   124  stm32f4xx_tim.o(.text)
    TIM_GetCapture1                          0x08003ecd   Thumb Code     6  stm32f4xx_tim.o(.text)
    TIM_GetCapture2                          0x08003ed3   Thumb Code     6  stm32f4xx_tim.o(.text)
    TIM_GetCapture3                          0x08003ed9   Thumb Code     6  stm32f4xx_tim.o(.text)
    TIM_GetCapture4                          0x08003edf   Thumb Code     6  stm32f4xx_tim.o(.text)
    TIM_BDTRConfig                           0x08003ee5   Thumb Code    32  stm32f4xx_tim.o(.text)
    TIM_BDTRStructInit                       0x08003f05   Thumb Code    18  stm32f4xx_tim.o(.text)
    TIM_CtrlPWMOutputs                       0x08003f17   Thumb Code    30  stm32f4xx_tim.o(.text)
    TIM_SelectCOM                            0x08003f35   Thumb Code    24  stm32f4xx_tim.o(.text)
    TIM_CCPreloadControl                     0x08003f4d   Thumb Code    24  stm32f4xx_tim.o(.text)
    TIM_ITConfig                             0x08003f65   Thumb Code    18  stm32f4xx_tim.o(.text)
    TIM_GenerateEvent                        0x08003f77   Thumb Code     4  stm32f4xx_tim.o(.text)
    TIM_GetFlagStatus                        0x08003f7b   Thumb Code    18  stm32f4xx_tim.o(.text)
    TIM_ClearFlag                            0x08003f8d   Thumb Code     6  stm32f4xx_tim.o(.text)
    TIM_GetITStatus                          0x08003f93   Thumb Code    34  stm32f4xx_tim.o(.text)
    TIM_ClearITPendingBit                    0x08003fb5   Thumb Code     6  stm32f4xx_tim.o(.text)
    TIM_DMAConfig                            0x08003fbb   Thumb Code    10  stm32f4xx_tim.o(.text)
    TIM_DMACmd                               0x08003fc5   Thumb Code    18  stm32f4xx_tim.o(.text)
    TIM_SelectCCDMA                          0x08003fd7   Thumb Code    24  stm32f4xx_tim.o(.text)
    TIM_InternalClockConfig                  0x08003fef   Thumb Code    12  stm32f4xx_tim.o(.text)
    TIM_SelectInputTrigger                   0x08003ffb   Thumb Code    18  stm32f4xx_tim.o(.text)
    TIM_ITRxExternalClockConfig              0x0800400d   Thumb Code    24  stm32f4xx_tim.o(.text)
    TIM_TIxExternalClockConfig               0x08004025   Thumb Code    62  stm32f4xx_tim.o(.text)
    TIM_ETRConfig                            0x08004063   Thumb Code    28  stm32f4xx_tim.o(.text)
    TIM_ETRClockMode1Config                  0x0800407f   Thumb Code    54  stm32f4xx_tim.o(.text)
    TIM_ETRClockMode2Config                  0x080040b5   Thumb Code    32  stm32f4xx_tim.o(.text)
    TIM_SelectOutputTrigger                  0x080040d5   Thumb Code    18  stm32f4xx_tim.o(.text)
    TIM_SelectSlaveMode                      0x080040e7   Thumb Code    18  stm32f4xx_tim.o(.text)
    TIM_SelectMasterSlaveMode                0x080040f9   Thumb Code    18  stm32f4xx_tim.o(.text)
    TIM_EncoderInterfaceConfig               0x0800410b   Thumb Code    66  stm32f4xx_tim.o(.text)
    TIM_SelectHallSensor                     0x0800414d   Thumb Code    24  stm32f4xx_tim.o(.text)
    TIM_RemapConfig                          0x08004165   Thumb Code     6  stm32f4xx_tim.o(.text)
    FLASH_SetLatency                         0x0800416d   Thumb Code     6  stm32f4xx_flash.o(.text)
    FLASH_PrefetchBufferCmd                  0x08004173   Thumb Code    30  stm32f4xx_flash.o(.text)
    FLASH_InstructionCacheCmd                0x08004191   Thumb Code    30  stm32f4xx_flash.o(.text)
    FLASH_DataCacheCmd                       0x080041af   Thumb Code    30  stm32f4xx_flash.o(.text)
    FLASH_InstructionCacheReset              0x080041cd   Thumb Code    14  stm32f4xx_flash.o(.text)
    FLASH_DataCacheReset                     0x080041db   Thumb Code    14  stm32f4xx_flash.o(.text)
    FLASH_Unlock                             0x080041e9   Thumb Code    26  stm32f4xx_flash.o(.text)
    FLASH_Lock                               0x08004203   Thumb Code    18  stm32f4xx_flash.o(.text)
    FLASH_GetStatus                          0x08004215   Thumb Code    90  stm32f4xx_flash.o(.text)
    FLASH_WaitForLastOperation               0x0800426f   Thumb Code    34  stm32f4xx_flash.o(.text)
    FLASH_EraseSector                        0x08004291   Thumb Code   140  stm32f4xx_flash.o(.text)
    FLASH_EraseAllSectors                    0x0800431d   Thumb Code   112  stm32f4xx_flash.o(.text)
    FLASH_EraseAllBank1Sectors               0x0800438d   Thumb Code   112  stm32f4xx_flash.o(.text)
    FLASH_EraseAllBank2Sectors               0x080043fd   Thumb Code   112  stm32f4xx_flash.o(.text)
    FLASH_ProgramDoubleWord                  0x0800446d   Thumb Code    86  stm32f4xx_flash.o(.text)
    FLASH_ProgramWord                        0x080044c3   Thumb Code    82  stm32f4xx_flash.o(.text)
    FLASH_ProgramHalfWord                    0x08004515   Thumb Code    96  stm32f4xx_flash.o(.text)
    FLASH_ProgramByte                        0x08004575   Thumb Code    70  stm32f4xx_flash.o(.text)
    FLASH_OB_Unlock                          0x080045bb   Thumb Code    26  stm32f4xx_flash.o(.text)
    FLASH_OB_Lock                            0x080045d5   Thumb Code    18  stm32f4xx_flash.o(.text)
    FLASH_OB_WRPConfig                       0x080045e7   Thumb Code    54  stm32f4xx_flash.o(.text)
    FLASH_OB_WRP1Config                      0x0800461d   Thumb Code    54  stm32f4xx_flash.o(.text)
    FLASH_OB_PCROPSelectionConfig            0x08004653   Thumb Code    24  stm32f4xx_flash.o(.text)
    FLASH_OB_PCROPConfig                     0x0800466b   Thumb Code    54  stm32f4xx_flash.o(.text)
    FLASH_OB_PCROP1Config                    0x080046a1   Thumb Code    54  stm32f4xx_flash.o(.text)
    FLASH_OB_RDPConfig                       0x080046d7   Thumb Code    24  stm32f4xx_flash.o(.text)
    FLASH_OB_UserConfig                      0x080046ef   Thumb Code    46  stm32f4xx_flash.o(.text)
    FLASH_OB_BootConfig                      0x0800471d   Thumb Code    26  stm32f4xx_flash.o(.text)
    FLASH_OB_BORConfig                       0x08004737   Thumb Code    26  stm32f4xx_flash.o(.text)
    FLASH_OB_Launch                          0x08004751   Thumb Code    30  stm32f4xx_flash.o(.text)
    FLASH_OB_GetUser                         0x0800476f   Thumb Code    12  stm32f4xx_flash.o(.text)
    FLASH_OB_GetWRP                          0x0800477b   Thumb Code     8  stm32f4xx_flash.o(.text)
    FLASH_OB_GetWRP1                         0x08004783   Thumb Code     8  stm32f4xx_flash.o(.text)
    FLASH_OB_GetPCROP                        0x0800478b   Thumb Code     8  stm32f4xx_flash.o(.text)
    FLASH_OB_GetPCROP1                       0x08004793   Thumb Code     8  stm32f4xx_flash.o(.text)
    FLASH_OB_GetRDP                          0x0800479b   Thumb Code    20  stm32f4xx_flash.o(.text)
    FLASH_OB_GetBOR                          0x080047af   Thumb Code    12  stm32f4xx_flash.o(.text)
    FLASH_ITConfig                           0x080047bb   Thumb Code    26  stm32f4xx_flash.o(.text)
    FLASH_GetFlagStatus                      0x080047d5   Thumb Code    22  stm32f4xx_flash.o(.text)
    FLASH_ClearFlag                          0x080047eb   Thumb Code     8  stm32f4xx_flash.o(.text)
    SPI_I2S_DeInit                           0x08004801   Thumb Code   152  stm32f4xx_spi.o(.text)
    SPI_Init                                 0x08004899   Thumb Code    60  stm32f4xx_spi.o(.text)
    I2S_Init                                 0x080048d5   Thumb Code   396  stm32f4xx_spi.o(.text)
    SPI_StructInit                           0x08004a61   Thumb Code    24  stm32f4xx_spi.o(.text)
    I2S_StructInit                           0x08004a79   Thumb Code    20  stm32f4xx_spi.o(.text)
    SPI_Cmd                                  0x08004a8d   Thumb Code    24  stm32f4xx_spi.o(.text)
    I2S_Cmd                                  0x08004aa5   Thumb Code    24  stm32f4xx_spi.o(.text)
    SPI_DataSizeConfig                       0x08004abd   Thumb Code    18  stm32f4xx_spi.o(.text)
    SPI_BiDirectionalLineConfig              0x08004acf   Thumb Code    28  stm32f4xx_spi.o(.text)
    SPI_NSSInternalSoftwareConfig            0x08004aeb   Thumb Code    30  stm32f4xx_spi.o(.text)
    SPI_SSOutputCmd                          0x08004b09   Thumb Code    24  stm32f4xx_spi.o(.text)
    SPI_TIModeCmd                            0x08004b21   Thumb Code    24  stm32f4xx_spi.o(.text)
    I2S_FullDuplexConfig                     0x08004b39   Thumb Code    80  stm32f4xx_spi.o(.text)
    SPI_I2S_ReceiveData                      0x08004b89   Thumb Code     6  stm32f4xx_spi.o(.text)
    SPI_I2S_SendData                         0x08004b8f   Thumb Code     4  stm32f4xx_spi.o(.text)
    SPI_CalculateCRC                         0x08004b93   Thumb Code    24  stm32f4xx_spi.o(.text)
    SPI_TransmitCRC                          0x08004bab   Thumb Code    10  stm32f4xx_spi.o(.text)
    SPI_GetCRC                               0x08004bb5   Thumb Code    16  stm32f4xx_spi.o(.text)
    SPI_GetCRCPolynomial                     0x08004bc5   Thumb Code     6  stm32f4xx_spi.o(.text)
    SPI_I2S_DMACmd                           0x08004bcb   Thumb Code    18  stm32f4xx_spi.o(.text)
    SPI_I2S_ITConfig                         0x08004bdd   Thumb Code    68  stm32f4xx_spi.o(.text)
    SPI_I2S_GetFlagStatus                    0x08004c21   Thumb Code    18  stm32f4xx_spi.o(.text)
    SPI_I2S_ClearFlag                        0x08004c33   Thumb Code     6  stm32f4xx_spi.o(.text)
    SPI_I2S_GetITStatus                      0x08004c39   Thumb Code    52  stm32f4xx_spi.o(.text)
    SPI_I2S_ClearITPendingBit                0x08004c6d   Thumb Code    20  stm32f4xx_spi.o(.text)
    DMA_DeInit                               0x08004c81   Thumb Code   324  stm32f4xx_dma.o(.text)
    DMA_Init                                 0x08004dc5   Thumb Code    82  stm32f4xx_dma.o(.text)
    DMA_StructInit                           0x08004e17   Thumb Code    34  stm32f4xx_dma.o(.text)
    DMA_Cmd                                  0x08004e39   Thumb Code    22  stm32f4xx_dma.o(.text)
    DMA_PeriphIncOffsetSizeConfig            0x08004e4f   Thumb Code    22  stm32f4xx_dma.o(.text)
    DMA_FlowControllerConfig                 0x08004e65   Thumb Code    22  stm32f4xx_dma.o(.text)
    DMA_SetCurrDataCounter                   0x08004e7b   Thumb Code     4  stm32f4xx_dma.o(.text)
    DMA_GetCurrDataCounter                   0x08004e7f   Thumb Code     8  stm32f4xx_dma.o(.text)
    DMA_DoubleBufferModeConfig               0x08004e87   Thumb Code    24  stm32f4xx_dma.o(.text)
    DMA_DoubleBufferModeCmd                  0x08004e9f   Thumb Code    22  stm32f4xx_dma.o(.text)
    DMA_MemoryTargetConfig                   0x08004eb5   Thumb Code    10  stm32f4xx_dma.o(.text)
    DMA_GetCurrentMemoryTarget               0x08004ebf   Thumb Code    20  stm32f4xx_dma.o(.text)
    DMA_GetCmdStatus                         0x08004ed3   Thumb Code    20  stm32f4xx_dma.o(.text)
    DMA_GetFIFOStatus                        0x08004ee7   Thumb Code    12  stm32f4xx_dma.o(.text)
    DMA_GetFlagStatus                        0x08004ef3   Thumb Code    56  stm32f4xx_dma.o(.text)
    DMA_ClearFlag                            0x08004f2b   Thumb Code    40  stm32f4xx_dma.o(.text)
    DMA_ITConfig                             0x08004f53   Thumb Code    58  stm32f4xx_dma.o(.text)
    DMA_GetITStatus                          0x08004f8d   Thumb Code    84  stm32f4xx_dma.o(.text)
    DMA_ClearITPendingBit                    0x08004fe1   Thumb Code    40  stm32f4xx_dma.o(.text)
    RNG_DeInit                               0x08005029   Thumb Code    20  stm32f4xx_rng.o(.text)
    RNG_Cmd                                  0x0800503d   Thumb Code    30  stm32f4xx_rng.o(.text)
    RNG_GetRandomNumber                      0x0800505b   Thumb Code     8  stm32f4xx_rng.o(.text)
    RNG_ITConfig                             0x08005063   Thumb Code    30  stm32f4xx_rng.o(.text)
    RNG_GetFlagStatus                        0x08005081   Thumb Code    22  stm32f4xx_rng.o(.text)
    RNG_ClearFlag                            0x08005097   Thumb Code    12  stm32f4xx_rng.o(.text)
    RNG_GetITStatus                          0x080050a3   Thumb Code    22  stm32f4xx_rng.o(.text)
    RNG_ClearITPendingBit                    0x080050b9   Thumb Code    12  stm32f4xx_rng.o(.text)
    ADC_DeInit                               0x080050c9   Thumb Code    22  stm32f4xx_adc.o(.text)
    ADC_Init                                 0x080050df   Thumb Code    74  stm32f4xx_adc.o(.text)
    ADC_StructInit                           0x08005129   Thumb Code    20  stm32f4xx_adc.o(.text)
    ADC_CommonInit                           0x0800513d   Thumb Code    34  stm32f4xx_adc.o(.text)
    ADC_CommonStructInit                     0x0800515f   Thumb Code    12  stm32f4xx_adc.o(.text)
    ADC_Cmd                                  0x0800516b   Thumb Code    22  stm32f4xx_adc.o(.text)
    ADC_AnalogWatchdogCmd                    0x08005181   Thumb Code    16  stm32f4xx_adc.o(.text)
    ADC_AnalogWatchdogThresholdsConfig       0x08005191   Thumb Code     6  stm32f4xx_adc.o(.text)
    ADC_AnalogWatchdogSingleChannelConfig    0x08005197   Thumb Code    16  stm32f4xx_adc.o(.text)
    ADC_TempSensorVrefintCmd                 0x080051a7   Thumb Code    34  stm32f4xx_adc.o(.text)
    ADC_VBATCmd                              0x080051c9   Thumb Code    34  stm32f4xx_adc.o(.text)
    ADC_RegularChannelConfig                 0x080051eb   Thumb Code   184  stm32f4xx_adc.o(.text)
    ADC_SoftwareStartConv                    0x080052a3   Thumb Code    10  stm32f4xx_adc.o(.text)
    ADC_GetSoftwareStartConvStatus           0x080052ad   Thumb Code    20  stm32f4xx_adc.o(.text)
    ADC_EOCOnEachRegularChannelCmd           0x080052c1   Thumb Code    22  stm32f4xx_adc.o(.text)
    ADC_ContinuousModeCmd                    0x080052d7   Thumb Code    22  stm32f4xx_adc.o(.text)
    ADC_DiscModeChannelCountConfig           0x080052ed   Thumb Code    24  stm32f4xx_adc.o(.text)
    ADC_DiscModeCmd                          0x08005305   Thumb Code    22  stm32f4xx_adc.o(.text)
    ADC_GetConversionValue                   0x0800531b   Thumb Code     8  stm32f4xx_adc.o(.text)
    ADC_GetMultiModeConversionValue          0x08005323   Thumb Code     8  stm32f4xx_adc.o(.text)
    ADC_DMACmd                               0x0800532b   Thumb Code    22  stm32f4xx_adc.o(.text)
    ADC_DMARequestAfterLastTransferCmd       0x08005341   Thumb Code    22  stm32f4xx_adc.o(.text)
    ADC_MultiModeDMARequestAfterLastTransferCmd 0x08005357   Thumb Code    34  stm32f4xx_adc.o(.text)
    ADC_InjectedChannelConfig                0x08005379   Thumb Code   130  stm32f4xx_adc.o(.text)
    ADC_InjectedSequencerLengthConfig        0x080053fb   Thumb Code    24  stm32f4xx_adc.o(.text)
    ADC_SetInjectedOffset                    0x08005413   Thumb Code    20  stm32f4xx_adc.o(.text)
    ADC_ExternalTrigInjectedConvConfig       0x08005427   Thumb Code    16  stm32f4xx_adc.o(.text)
    ADC_ExternalTrigInjectedConvEdgeConfig   0x08005437   Thumb Code    16  stm32f4xx_adc.o(.text)
    ADC_SoftwareStartInjectedConv            0x08005447   Thumb Code    10  stm32f4xx_adc.o(.text)
    ADC_GetSoftwareStartInjectedConvCmdStatus 0x08005451   Thumb Code    20  stm32f4xx_adc.o(.text)
    ADC_AutoInjectedConvCmd                  0x08005465   Thumb Code    22  stm32f4xx_adc.o(.text)
    ADC_InjectedDiscModeCmd                  0x0800547b   Thumb Code    22  stm32f4xx_adc.o(.text)
    ADC_GetInjectedConversionValue           0x08005491   Thumb Code    28  stm32f4xx_adc.o(.text)
    ADC_ITConfig                             0x080054ad   Thumb Code    56  stm32f4xx_adc.o(.text)
    ADC_GetFlagStatus                        0x080054e5   Thumb Code    18  stm32f4xx_adc.o(.text)
    ADC_ClearFlag                            0x080054f7   Thumb Code     6  stm32f4xx_adc.o(.text)
    ADC_GetITStatus                          0x080054fd   Thumb Code    38  stm32f4xx_adc.o(.text)
    ADC_ClearITPendingBit                    0x08005523   Thumb Code    10  stm32f4xx_adc.o(.text)
    IWDG_WriteAccessCmd                      0x0800552d   Thumb Code     6  stm32f4xx_iwdg.o(.text)
    IWDG_SetPrescaler                        0x08005533   Thumb Code     6  stm32f4xx_iwdg.o(.text)
    IWDG_SetReload                           0x08005539   Thumb Code     6  stm32f4xx_iwdg.o(.text)
    IWDG_ReloadCounter                       0x0800553f   Thumb Code    10  stm32f4xx_iwdg.o(.text)
    IWDG_Enable                              0x08005549   Thumb Code    10  stm32f4xx_iwdg.o(.text)
    IWDG_GetFlagStatus                       0x08005553   Thumb Code    20  stm32f4xx_iwdg.o(.text)
    OS_TaskStatStkChk                        0x0800556d   Thumb Code    54  os_core.o(.text)
    OS_TaskStat                              0x080055a3   Thumb Code   116  os_core.o(.text)
    OS_TaskIdle                              0x0800564b   Thumb Code    34  os_core.o(.text)
    OS_MemClr                                0x080056a1   Thumb Code    18  os_core.o(.text)
    OSInit                                   0x080057bf   Thumb Code    48  os_core.o(.text)
    OSIntEnter                               0x080057ef   Thumb Code    28  os_core.o(.text)
    OSIntExit                                0x08005825   Thumb Code   112  os_core.o(.text)
    OSSchedLock                              0x08005895   Thumb Code    50  os_core.o(.text)
    OS_Sched                                 0x080058c7   Thumb Code    88  os_core.o(.text)
    OSSchedUnlock                            0x0800591f   Thumb Code   238  os_core.o(.text)
    OSStart                                  0x08005a0d   Thumb Code    48  os_core.o(.text)
    OSStatInit                               0x08005a3d   Thumb Code    62  os_core.o(.text)
    OSTimeTick                               0x08005a7b   Thumb Code   210  os_core.o(.text)
    OSVersion                                0x08005b4d   Thumb Code     6  os_core.o(.text)
    OS_Dummy                                 0x08005b53   Thumb Code     2  os_core.o(.text)
    OS_EventTaskRemove                       0x08005b55   Thumb Code    42  os_core.o(.text)
    OS_EventTaskRdy                          0x08005b7f   Thumb Code   114  os_core.o(.text)
    OS_EventTaskWait                         0x08005bf1   Thumb Code   112  os_core.o(.text)
    OS_EventWaitListInit                     0x08005c61   Thumb Code    28  os_core.o(.text)
    OS_MemCopy                               0x08005c7d   Thumb Code    20  os_core.o(.text)
    OS_StrLen                                0x08005c91   Thumb Code    20  os_core.o(.text)
    OS_TCBInit                               0x08005ca5   Thumb Code   280  os_core.o(.text)
    OSFlagAccept                             0x08005e01   Thumb Code   252  os_flag.o(.text)
    OSFlagCreate                             0x08005efd   Thumb Code    86  os_flag.o(.text)
    OS_FlagUnlink                            0x08005f53   Thumb Code    36  os_flag.o(.text)
    OSFlagDel                                0x08005fc9   Thumb Code   214  os_flag.o(.text)
    OSFlagNameGet                            0x0800609f   Thumb Code    80  os_flag.o(.text)
    OSFlagNameSet                            0x080060ef   Thumb Code    66  os_flag.o(.text)
    OSFlagPend                               0x080061c9   Thumb Code   614  os_flag.o(.text)
    OSFlagPendGetFlagsRdy                    0x0800642f   Thumb Code    26  os_flag.o(.text)
    OSFlagPost                               0x08006449   Thumb Code   312  os_flag.o(.text)
    OSFlagQuery                              0x08006581   Thumb Code    48  os_flag.o(.text)
    OS_FlagInit                              0x080065b1   Thumb Code    78  os_flag.o(.text)
    OSMboxAccept                             0x0800660d   Thumb Code    38  os_mbox.o(.text)
    OSMboxCreate                             0x08006633   Thumb Code    68  os_mbox.o(.text)
    OSMboxDel                                0x08006677   Thumb Code   200  os_mbox.o(.text)
    OSMboxPend                               0x0800673f   Thumb Code   246  os_mbox.o(.text)
    OSMboxPendAbort                          0x08006835   Thumb Code   128  os_mbox.o(.text)
    OSMboxPost                               0x080068b5   Thumb Code    80  os_mbox.o(.text)
    OSMboxPostOpt                            0x08006905   Thumb Code   120  os_mbox.o(.text)
    OSMboxQuery                              0x0800697d   Thumb Code    76  os_mbox.o(.text)
    OSQAccept                                0x080069d9   Thumb Code    88  os_q.o(.text)
    OSQCreate                                0x08006a31   Thumb Code   140  os_q.o(.text)
    OSQDel                                   0x08006abd   Thumb Code   236  os_q.o(.text)
    OSQFlush                                 0x08006ba9   Thumb Code    36  os_q.o(.text)
    OSQPend                                  0x08006bcd   Thumb Code   272  os_q.o(.text)
    OSQPendAbort                             0x08006cdd   Thumb Code   128  os_q.o(.text)
    OSQPost                                  0x08006d5d   Thumb Code   114  os_q.o(.text)
    OSQPostFront                             0x08006dcf   Thumb Code   136  os_q.o(.text)
    OSQPostOpt                               0x08006e57   Thumb Code   182  os_q.o(.text)
    OSQQuery                                 0x08006f0d   Thumb Code    98  os_q.o(.text)
    OS_QInit                                 0x08006f6f   Thumb Code    72  os_q.o(.text)
    OSSemAccept                              0x08006fc1   Thumb Code    42  os_sem.o(.text)
    OSSemCreate                              0x08006feb   Thumb Code    68  os_sem.o(.text)
    OSSemDel                                 0x0800702f   Thumb Code   200  os_sem.o(.text)
    OSSemPend                                0x080070f7   Thumb Code   222  os_sem.o(.text)
    OSSemPendAbort                           0x080071d5   Thumb Code   128  os_sem.o(.text)
    OSSemPost                                0x08007255   Thumb Code    88  os_sem.o(.text)
    OSSemQuery                               0x080072ad   Thumb Code    76  os_sem.o(.text)
    OSSemSet                                 0x080072f9   Thumb Code    66  os_sem.o(.text)
    OSTaskChangePrio                         0x0800734d   Thumb Code   308  os_task.o(.text)
    OSTaskCreate                             0x08007481   Thumb Code   148  os_task.o(.text)
    OS_TaskStkClr                            0x08007515   Thumb Code    26  os_task.o(.text)
    OSTaskCreateExt                          0x0800752f   Thumb Code   170  os_task.o(.text)
    OSTaskDel                                0x080075d9   Thumb Code   294  os_task.o(.text)
    OSTaskDelReq                             0x080076ff   Thumb Code   144  os_task.o(.text)
    OSTaskNameGet                            0x0800778f   Thumb Code   114  os_task.o(.text)
    OSTaskNameSet                            0x08007801   Thumb Code    98  os_task.o(.text)
    OSTaskResume                             0x08007863   Thumb Code   154  os_task.o(.text)
    OSTaskStkChk                             0x080078fd   Thumb Code   132  os_task.o(.text)
    OSTaskSuspend                            0x08007981   Thumb Code   152  os_task.o(.text)
    OSTaskQuery                              0x08007a19   Thumb Code    82  os_task.o(.text)
    OSTaskRegGet                             0x08007a6b   Thumb Code    60  os_task.o(.text)
    OSTaskRegSet                             0x08007aa7   Thumb Code    62  os_task.o(.text)
    OS_TaskReturn                            0x08007ae5   Thumb Code    18  os_task.o(.text)
    OSTimeDly                                0x08007b11   Thumb Code   100  os_time.o(.text)
    OSTimeDlyHMSM                            0x08007b75   Thumb Code    86  os_time.o(.text)
    OSTimeDlyResume                          0x08007bcb   Thumb Code   168  os_time.o(.text)
    OSTimeGet                                0x08007c73   Thumb Code    24  os_time.o(.text)
    OSTimeSet                                0x08007c8b   Thumb Code    24  os_time.o(.text)
    OSTmrCreate                              0x08007cf3   Thumb Code    96  os_tmr.o(.text)
    OSTmrDel                                 0x08007dcb   Thumb Code   124  os_tmr.o(.text)
    OSTmrNameGet                             0x08007e47   Thumb Code   114  os_tmr.o(.text)
    OSTmrRemainGet                           0x08007eb9   Thumb Code   164  os_tmr.o(.text)
    OSTmrStateGet                            0x08007f5d   Thumb Code    86  os_tmr.o(.text)
    OSTmrStart                               0x08008017   Thumb Code   128  os_tmr.o(.text)
    OSTmrStop                                0x08008097   Thumb Code   210  os_tmr.o(.text)
    OSTmrSignal                              0x08008169   Thumb Code    16  os_tmr.o(.text)
    OSTmr_Init                               0x0800821d   Thumb Code   152  os_tmr.o(.text)
    OS_CPU_SR_Save                           0x080082f5   Thumb Code     0  os_cpu_a.o(.text)
    OS_CPU_SR_Restore                        0x080082fd   Thumb Code     0  os_cpu_a.o(.text)
    OSStartHighRdy                           0x08008303   Thumb Code     0  os_cpu_a.o(.text)
    OSCtxSw                                  0x08008327   Thumb Code     0  os_cpu_a.o(.text)
    OSIntCtxSw                               0x08008335   Thumb Code     0  os_cpu_a.o(.text)
    PendSV_Handler                           0x08008345   Thumb Code     0  os_cpu_a.o(.text)
    OSInitHookBegin                          0x080083bd   Thumb Code     8  os_cpu_c.o(.text)
    OSInitHookEnd                            0x080083c5   Thumb Code     2  os_cpu_c.o(.text)
    OSTaskCreateHook                         0x080083c7   Thumb Code     2  os_cpu_c.o(.text)
    OSTaskDelHook                            0x080083c9   Thumb Code     2  os_cpu_c.o(.text)
    OSTaskIdleHook                           0x080083cb   Thumb Code     2  os_cpu_c.o(.text)
    OSTaskStatHook                           0x080083cd   Thumb Code     2  os_cpu_c.o(.text)
    OSTaskStkInit                            0x080083cf   Thumb Code   426  os_cpu_c.o(.text)
    OSTaskSwHook                             0x08008579   Thumb Code     2  os_cpu_c.o(.text)
    OSTCBInitHook                            0x0800857b   Thumb Code     2  os_cpu_c.o(.text)
    OSTimeTickHook                           0x0800857d   Thumb Code    30  os_cpu_c.o(.text)
    OSTaskReturnHook                         0x0800859b   Thumb Code     2  os_cpu_c.o(.text)
    SPI_CS                                   0x080085a5   Thumb Code   228  spi.o(.text)
    SPI2_Init                                0x08008689   Thumb Code   324  spi.o(.text)
    Spi_RW                                   0x080087cd   Thumb Code    50  spi.o(.text)
    SPI_Receive                              0x080087ff   Thumb Code    28  spi.o(.text)
    STMFLASH_ReadWord                        0x0800882d   Thumb Code     6  flash.o(.text)
    STMFLASH_GetFlashSector                  0x08008833   Thumb Code   116  flash.o(.text)
    STMFLASH_Write                           0x080088a7   Thumb Code   146  flash.o(.text)
    STMFLASH_Read                            0x08008939   Thumb Code    32  flash.o(.text)
    READ_PARM                                0x08008959   Thumb Code  1698  flash.o(.text)
    WRITE_PARM                               0x08008ffb   Thumb Code  1106  flash.o(.text)
    leg_power_control                        0x08009469   Thumb Code    26  led_fc.o(.text)
    POWER_INIT                               0x08009483   Thumb Code    48  led_fc.o(.text)
    LEDRGB                                   0x080094b3   Thumb Code    96  led_fc.o(.text)
    LEDRGB_COLOR                             0x08009513   Thumb Code   248  led_fc.o(.text)
    LED_Init                                 0x0800960b   Thumb Code   116  led_fc.o(.text)
    LEDRGB_STATE                             0x0800967f   Thumb Code  2312  led_fc.o(.text)
    Set_DJ_PWM                               0x08009fd9   Thumb Code   722  pwm_out.o(.text)
    PWM_Out_Init                             0x0800a2ab   Thumb Code   616  pwm_out.o(.text)
    PWM_AUX_Out_Init                         0x0800a513   Thumb Code   484  pwm_out.o(.text)
    SysTick_Configuration                    0x0800a719   Thumb Code    98  time.o(.text)
    micros                                   0x0800a77b   Thumb Code     8  time.o(.text)
    GetSysTime_us                            0x0800a783   Thumb Code     8  time.o(.text)
    Delay_us                                 0x0800a78b   Thumb Code    12  time.o(.text)
    Delay_ms                                 0x0800a797   Thumb Code    24  time.o(.text)
    Get_Cycle_T                              0x0800a7af   Thumb Code   118  time.o(.text)
    Cycle_Time_Init                          0x0800a825   Thumb Code    22  time.o(.text)
    Initial_Timer_SYS                        0x0800a83b   Thumb Code    68  time.o(.text)
    RNG_Init                                 0x0800a895   Thumb Code    62  rng.o(.text)
    RNG_Get_RandomNum                        0x0800a8d3   Thumb Code    20  rng.o(.text)
    RNG_Get_RandomRange                      0x0800a8e7   Thumb Code    26  rng.o(.text)
    Adc_Init                                 0x0800a901   Thumb Code   148  bat.o(.text)
    ADC_Configuration                        0x0800a995   Thumb Code   278  bat.o(.text)
    Get_Adc                                  0x0800aaab   Thumb Code    62  bat.o(.text)
    get_leg_press                            0x0800aae9   Thumb Code   976  bat.o(.text)
    Get_Adc_Average                          0x0800aeb9   Thumb Code    68  bat.o(.text)
    Bat_protect                              0x0800aefd   Thumb Code  1236  bat.o(.text)
    Tone                                     0x0800b405   Thumb Code   126  beep.o(.text)
    Play_Music                               0x0800b483   Thumb Code   152  beep.o(.text)
    Play_Music_In_Task                       0x0800b51b   Thumb Code   310  beep.o(.text)
    Play_Music_Direct                        0x0800b651   Thumb Code   104  beep.o(.text)
    Play_Music_Task                          0x0800b6b9   Thumb Code   524  beep.o(.text)
    Beep_Init                                0x0800b8c5   Thumb Code   172  beep.o(.text)
    IWDG_Init                                0x0800b989   Thumb Code    36  watch_dog.o(.text)
    IWDG_Feed                                0x0800b9ad   Thumb Code     8  watch_dog.o(.text)
    NRF_Write_Reg                            0x0800b9b5   Thumb Code    40  nrf.o(.text)
    NRF_Read_Reg                             0x0800b9dd   Thumb Code    38  nrf.o(.text)
    NRF_Write_Buf                            0x0800ba03   Thumb Code    58  nrf.o(.text)
    NRF_Read_Buf                             0x0800ba3d   Thumb Code    60  nrf.o(.text)
    NRF_TxPacket                             0x0800ba79   Thumb Code    44  nrf.o(.text)
    NRF_TxPacket_AP                          0x0800baa5   Thumb Code    34  nrf.o(.text)
    Nrf24l01_Check                           0x0800bac7   Thumb Code    66  nrf.o(.text)
    NRF24L01_RxPacket                        0x0800bb09   Thumb Code    52  nrf.o(.text)
    Nrf24l01_Init                            0x0800bb3d   Thumb Code   238  nrf.o(.text)
    W25QXX_ReadID                            0x0800bc3d   Thumb Code    66  flash_w25.o(.text)
    W25QXX_Init                              0x0800bc7f   Thumb Code    80  flash_w25.o(.text)
    W25QXX_ReadSR                            0x0800bccf   Thumb Code    38  flash_w25.o(.text)
    W25QXX_Write_SR                          0x0800bcf5   Thumb Code    34  flash_w25.o(.text)
    W25QXX_Write_Enable                      0x0800bd17   Thumb Code    26  flash_w25.o(.text)
    W25QXX_Write_Disable                     0x0800bd31   Thumb Code    26  flash_w25.o(.text)
    W25QXX_Read                              0x0800bd4b   Thumb Code    78  flash_w25.o(.text)
    W25QXX_Wait_Busy                         0x0800bd99   Thumb Code    18  flash_w25.o(.text)
    W25QXX_Write_Page                        0x0800bdab   Thumb Code    84  flash_w25.o(.text)
    W25QXX_Write_NoCheck                     0x0800bdff   Thumb Code    70  flash_w25.o(.text)
    W25QXX_Erase_Sector                      0x0800be45   Thumb Code    64  flash_w25.o(.text)
    W25QXX_Write                             0x0800be85   Thumb Code   180  flash_w25.o(.text)
    W25QXX_Erase_Chip                        0x0800bf39   Thumb Code    38  flash_w25.o(.text)
    W25QXX_PowerDown                         0x0800bf5f   Thumb Code    32  flash_w25.o(.text)
    W25QXX_WAKEUP                            0x0800bf7f   Thumb Code    32  flash_w25.o(.text)
    I2c_Soft_delay_VL53                      0x0800bfad   Thumb Code    44  iic_vl53.o(.text)
    Init_Ground_Key                          0x0800bfd9   Thumb Code   152  iic_vl53.o(.text)
    Read_Ground_Key                          0x0800c071   Thumb Code   346  iic_vl53.o(.text)
    I2c_Soft_Init_VL53                       0x0800c1cb   Thumb Code   342  iic_vl53.o(.text)
    makeuint16                               0x0800c321   Thumb Code    12  iic_vl53.o(.text)
    I2c_Soft_Stop_VL53                       0x0800c32d   Thumb Code   656  iic_vl53.o(.text)
    I2c_Soft_NoAsk_VL53                      0x0800c5bd   Thumb Code   620  iic_vl53.o(.text)
    I2c_Soft_Ask_VL53                        0x0800c829   Thumb Code   586  iic_vl53.o(.text)
    I2c_Soft_ReadByte_VL53                   0x0800ca73   Thumb Code  1116  iic_vl53.o(.text)
    I2c_Soft_WaitAsk_VL53                    0x0800cecf   Thumb Code  1030  iic_vl53.o(.text)
    I2c_Soft_SendByte_VL53                   0x0800d2d5   Thumb Code   954  iic_vl53.o(.text)
    I2c_Soft_Start_VL53                      0x0800d68f   Thumb Code  1036  iic_vl53.o(.text)
    IIC_Read_nByte_VL53                      0x0800da9b   Thumb Code   140  iic_vl53.o(.text)
    IIC_Read_1Byte_VL53                      0x0800db27   Thumb Code   104  iic_vl53.o(.text)
    IIC_Write_1Byte_VL53                     0x0800db8f   Thumb Code   100  iic_vl53.o(.text)
    READ_VL53                                0x0800dbf3   Thumb Code   306  iic_vl53.o(.text)
    IIC_Write_nByte_VL53                     0x0800dd25   Thumb Code   104  iic_vl53.o(.text)
    Usart1_Init                              0x0800dda1   Thumb Code   218  usart_fc.o(.text)
    Usart2_Init                              0x0800de7b   Thumb Code   210  usart_fc.o(.text)
    Usart3_Init                              0x0800df4d   Thumb Code   218  usart_fc.o(.text)
    Usart4_Init                              0x0800e027   Thumb Code   218  usart_fc.o(.text)
    Uart5_Init                               0x0800e101   Thumb Code   160  usart_fc.o(.text)
    UsartSend1                               0x0800e1a1   Thumb Code    64  usart_fc.o(.text)
    UsartSend2                               0x0800e1e1   Thumb Code    28  usart_fc.o(.text)
    UsartSend3                               0x0800e1fd   Thumb Code    28  usart_fc.o(.text)
    UsartSend4                               0x0800e219   Thumb Code    28  usart_fc.o(.text)
    Data_LEG_CMD                             0x0800e235   Thumb Code   996  usart_fc.o(.text)
    Anal_Outter_CMD                          0x0800e619   Thumb Code   492  usart_fc.o(.text)
    USART1_IRQHandler                        0x0800e805   Thumb Code   328  usart_fc.o(.text)
    USART2_IRQHandler                        0x0800e94d   Thumb Code   382  usart_fc.o(.text)
    USART3_IRQHandler                        0x0800eacb   Thumb Code   338  usart_fc.o(.text)
    UART4_IRQHandler                         0x0800ec1d   Thumb Code   324  usart_fc.o(.text)
    UART5_IRQHandler                         0x0800ed61   Thumb Code   768  usart_fc.o(.text)
    data_per_uart_rc                         0x0800f061   Thumb Code   126  usart_fc.o(.text)
    GOL_LINK_TASK_DMA                        0x0800f0df   Thumb Code     2  usart_fc.o(.text)
    clear_leg_uart                           0x0800f0e1   Thumb Code    26  usart_fc.o(.text)
    data_per_uart1                           0x0800f0fb   Thumb Code   616  usart_fc.o(.text)
    NRF_DataAnl                              0x0800f371   Thumb Code  1400  rc_mine.o(.text)
    Nrf_Check_Event                          0x0800f8e9   Thumb Code   116  rc_mine.o(.text)
    NRF_Send1                                0x0800f95d   Thumb Code   844  rc_mine.o(.text)
    NRF_Send2                                0x0800fca9   Thumb Code   140  rc_mine.o(.text)
    NRF_Send3                                0x0800fd35   Thumb Code   212  rc_mine.o(.text)
    NRF_Send4                                0x0800fe09   Thumb Code   118  rc_mine.o(.text)
    NRF_Send5                                0x0800fe7f   Thumb Code   118  rc_mine.o(.text)
    NRF_Send6                                0x0800fef5   Thumb Code   118  rc_mine.o(.text)
    param_copy_pid                           0x0800ff6b   Thumb Code     2  rc_mine.o(.text)
    pid_copy_param                           0x0800ff6d   Thumb Code     2  rc_mine.o(.text)
    RC_Send_Task                             0x0800ff6f   Thumb Code   246  rc_mine.o(.text)
    IMU_Read                                 0x08010071   Thumb Code    50  mems.o(.text)
    MEMS_Data_Offset                         0x080100a3   Thumb Code  1406  mems.o(.text)
    Transform                                0x08010621   Thumb Code    14  mems.o(.text)
    LIS_CalOffset_Mag                        0x0801062f   Thumb Code  1954  mems.o(.text)
    IMU_Data_Prepare                         0x08010dd1   Thumb Code  1548  mems.o(.text)
    Lis3mdl_SPI_WR                           0x080113f5   Thumb Code    38  icm20602.o(.text)
    SPI_BufferRead                           0x0801141b   Thumb Code    86  icm20602.o(.text)
    LSM6_readAcc                             0x08011471   Thumb Code   160  icm20602.o(.text)
    LSM6_readGyro                            0x08011511   Thumb Code   160  icm20602.o(.text)
    DS33_Init                                0x080115b1   Thumb Code   126  icm20602.o(.text)
    LIS3MDL_Init                             0x0801162f   Thumb Code    84  icm20602.o(.text)
    LIS3MDL_read                             0x08011683   Thumb Code   210  icm20602.o(.text)
    invSqrt                                  0x08011765   Thumb Code    56  imu.o(.text)
    calculateAccConfidence                   0x0801179d   Thumb Code   240  imu.o(.text)
    calculateHmlConfidence                   0x0801188d   Thumb Code   214  imu.o(.text)
    mag_fail_check                           0x08011963   Thumb Code   410  imu.o(.text)
    Q_state_init                             0x08011afd   Thumb Code  1036  imu.o(.text)
    madgwick_update_new                      0x08011f09   Thumb Code  6272  imu.o(.text)
    MS5611_Detect                            0x080137a1   Thumb Code     4  ms5611.o(.text)
    Spi_SingleWirteAndRead                   0x080137a5   Thumb Code    52  ms5611.o(.text)
    LPButter_BaroAlt                         0x080137d9   Thumb Code   136  ms5611.o(.text)
    SPI_MultiWriteAndRead                    0x08013861   Thumb Code    88  ms5611.o(.text)
    Spi_BaroSingleWrite                      0x080138b9   Thumb Code    40  ms5611.o(.text)
    Spi_BaroMultiRead                        0x080138e1   Thumb Code    46  ms5611.o(.text)
    SoftDelayMs                              0x0801390f   Thumb Code    22  ms5611.o(.text)
    MS5611_Init                              0x0801398b   Thumb Code    22  ms5611.o(.text)
    MS5611_Update                            0x08013bff   Thumb Code   316  ms5611.o(.text)
    MS5611_Read                              0x08013d3b   Thumb Code     8  ms5611.o(.text)
    DJ_init                                  0x08013d71   Thumb Code   252  vmc_demo.o(.text)
    cal_jacobi_d                             0x08013e6d   Thumb Code  2738  vmc_demo.o(.text)
    vmc_init                                 0x0801491f   Thumb Code  2074  vmc_demo.o(.text)
    estimate_end_state_d                     0x08015c7b   Thumb Code   764  vmc_demo.o(.text)
    inv_end_state_d                          0x08018001   Thumb Code   610  vmc_demo.o(.text)
    cal_torque_d                             0x08018263   Thumb Code   476  vmc_demo.o(.text)
    out_range_protect_d                      0x0801843f   Thumb Code   822  vmc_demo.o(.text)
    vcal_pwm_from_sita_d                     0x08018775   Thumb Code   312  vmc_demo.o(.text)
    convert_mine_to_vmc_test_d               0x080188ad   Thumb Code   160  vmc_demo.o(.text)
    convert_mine_to_vmc_d                    0x0801894d   Thumb Code   232  vmc_demo.o(.text)
    power_task_d                             0x08018a35   Thumb Code  1474  vmc_demo.o(.text)
    onboard_control_d                        0x080191c7   Thumb Code   560  vmc_demo.o(.text)
    VMC_DEMO                                 0x080193f7   Thumb Code  3558  vmc_demo.o(.text)
    follow_traj                              0x0801a211   Thumb Code  1508  vmc_sdk.o(.text)
    traj_init_task                           0x0801a7f5   Thumb Code   566  vmc_sdk.o(.text)
    set_pos_api                              0x0801aa2b   Thumb Code   176  vmc_sdk.o(.text)
    delay_api                                0x0801aadb   Thumb Code    46  vmc_sdk.o(.text)
    timer_init                               0x0801ab09   Thumb Code    38  vmc_sdk.o(.text)
    Trajectory_Test                          0x0801ab2f   Thumb Code   216  vmc_sdk.o(.text)
    track_pixy_api                           0x0801ac07   Thumb Code   742  vmc_sdk.o(.text)
    Cube_Track                               0x0801aeed   Thumb Code   120  vmc_sdk.o(.text)
    smart_control                            0x0801af65   Thumb Code   382  vmc_sdk.o(.text)
    set_spd_api                              0x0801b0e3   Thumb Code    50  vmc_sdk.o(.text)
    Low_Fass_Filter                          0x0801b135   Thumb Code   194  fliter.o(.text)
    Moving_Average                           0x0801b1f7   Thumb Code    94  fliter.o(.text)
    Moving_Median                            0x0801b255   Thumb Code   228  fliter.o(.text)
    simple_3d_trans                          0x0801b339   Thumb Code   272  fliter.o(.text)
    kalman2_init                             0x0801b449   Thumb Code   122  fliter.o(.text)
    kalman2_filter                           0x0801b4c3   Thumb Code   544  fliter.o(.text)
    my_sqrt                                  0x0801b70d   Thumb Code    88  my_math.o(.text)
    OLDX_SMOOTH_IN_ESOX                      0x0801ba2d   Thumb Code    94  my_math.o(.text)
    my_abs                                   0x0801ba8b   Thumb Code    26  my_math.o(.text)
    fast_atan2                               0x0801baa5   Thumb Code   378  my_math.o(.text)
    my_atan                                  0x0801bc1f   Thumb Code    24  my_math.o(.text)
    my_pow                                   0x0801bc37   Thumb Code    10  my_math.o(.text)
    mx_sin                                   0x0801bc41   Thumb Code   292  my_math.o(.text)
    my_sin                                   0x0801bd65   Thumb Code   108  my_math.o(.text)
    my_cos                                   0x0801bdd1   Thumb Code   136  my_math.o(.text)
    my_deathzoom                             0x0801be59   Thumb Code    62  my_math.o(.text)
    my_deathzoom_2                           0x0801be97   Thumb Code    40  my_math.o(.text)
    my_deathzoom_21                          0x0801bebf   Thumb Code    40  my_math.o(.text)
    my_deathzoom_rc                          0x0801bee7   Thumb Code   308  my_math.o(.text)
    limit_mine                               0x0801c01b   Thumb Code    40  my_math.o(.text)
    limit_mine2                              0x0801c043   Thumb Code    36  my_math.o(.text)
    To_180_degrees                           0x0801c067   Thumb Code    58  my_math.o(.text)
    my_pow_2_curve                           0x0801c0a1   Thumb Code    80  my_math.o(.text)
    GenerateTrajectory                       0x0801c0f1   Thumb Code  1306  my_math.o(.text)
    get_trajecotry                           0x0801c60b   Thumb Code  1856  my_math.o(.text)
    plan_tra                                 0x0801cd4b   Thumb Code   194  my_math.o(.text)
    get_tra                                  0x0801ce0d   Thumb Code   162  my_math.o(.text)
    pose_fushion                             0x0801ceb1   Thumb Code  1220  pose_fushion.o(.text)
    baro_fushion                             0x0801d381   Thumb Code   370  baro_fushion.o(.text)
    pose_kf                                  0x0801d521   Thumb Code  4948  pose_kf.o(.text)
    pose_kf_initialize                       0x0801e875   Thumb Code    10  pose_kf.o(.text)
    pose_kf_terminate                        0x0801e87f   Thumb Code     2  pose_kf.o(.text)
    baro_kf                                  0x0801e881   Thumb Code  2772  baro_kf.o(.text)
    baro_kf_initialize                       0x0801f355   Thumb Code    10  baro_kf.o(.text)
    baro_kf_terminate                        0x0801f35f   Thumb Code     2  baro_kf.o(.text)
    rt_InitInfAndNaN                         0x0801f385   Thumb Code    66  rt_nonfinite.o(.text)
    rtIsInf                                  0x0801f3c7   Thumb Code    66  rt_nonfinite.o(.text)
    rtIsInfF                                 0x0801f409   Thumb Code    40  rt_nonfinite.o(.text)
    rtIsNaN                                  0x0801f431   Thumb Code    40  rt_nonfinite.o(.text)
    rtIsNaNF                                 0x0801f459   Thumb Code    18  rt_nonfinite.o(.text)
    rtGetInfF                                0x0801f485   Thumb Code    14  rtgetinf.o(.text)
    rtGetInf                                 0x0801f493   Thumb Code   130  rtgetinf.o(.text)
    rtGetMinusInfF                           0x0801f515   Thumb Code    12  rtgetinf.o(.text)
    rtGetMinusInf                            0x0801f521   Thumb Code   130  rtgetinf.o(.text)
    rtGetNaNF                                0x0801f5b9   Thumb Code    48  rtgetnan.o(.text)
    rtGetNaN                                 0x0801f5e9   Thumb Code   134  rtgetnan.o(.text)
    sbus_anal_oldx                           0x0801f681   Thumb Code   462  sbus.o(.text)
    oldx_sbus_rx                             0x0801f84f   Thumb Code   120  sbus.o(.text)
    cycle_init_oldx                          0x0801f8e1   Thumb Code   184  cycle_cal_oldx.o(.text)
    cycle_data_add_oldx                      0x0801f999   Thumb Code   420  cycle_cal_oldx.o(.text)
    cycle_cal_oldx                           0x0801fb3d   Thumb Code  1980  cycle_cal_oldx.o(.text)
    get_license                              0x080202f9   Thumb Code    92  vmc.o(.text)
    DigitalLPF                               0x080205f5   Thumb Code   194  vmc.o(.text)
    fast_sqrt                                0x080206b7   Thumb Code   144  vmc.o(.text)
    sign                                     0x08020747   Thumb Code    20  vmc.o(.text)
    cosd                                     0x0802075b   Thumb Code    88  vmc.o(.text)
    tand                                     0x080207b3   Thumb Code    68  vmc.o(.text)
    sind                                     0x080207f7   Thumb Code    92  vmc.o(.text)
    dead                                     0x08020853   Thumb Code    62  vmc.o(.text)
    cal_bear                                 0x08020891   Thumb Code   566  vmc.o(.text)
    att_to_weight                            0x08020ac7   Thumb Code   436  vmc.o(.text)
    vcal_pwm_from_sita                       0x08020c7b   Thumb Code   312  vmc.o(.text)
    convert_mine_to_vmc_test                 0x08020db3   Thumb Code   160  vmc.o(.text)
    convert_mine_to_vmc                      0x08020e53   Thumb Code   184  vmc.o(.text)
    inv_end_state                            0x08020f0b   Thumb Code   548  vmc.o(.text)
    cal_jacobi                               0x0802112f   Thumb Code  2866  vmc.o(.text)
    cal_torque                               0x08021c61   Thumb Code   476  vmc.o(.text)
    cal_torque1                              0x08021e3d   Thumb Code   350  vmc.o(.text)
    out_range_protect                        0x08021ff9   Thumb Code   884  vmc.o(.text)
    estimate_end_state                       0x0802383f   Thumb Code  1400  vmc.o(.text)
    base_reset                               0x080248d5   Thumb Code   246  vmc.o(.text)
    attitude_control1                        0x080249cb   Thumb Code  3712  vmc.o(.text)
    height_control1                          0x0802584b   Thumb Code  2770  vmc.o(.text)
    leg_tar_publish                          0x0802631d   Thumb Code  2928  vmc.o(.text)
    leg_check_publish                        0x08026e8d   Thumb Code   532  vmc.o(.text)
    yaw_control                              0x080270a1   Thumb Code  2502  vmc.o(.text)
    spd_control                              0x08027a67   Thumb Code  3326  vmc.o(.text)
    pos_control                              0x08028765   Thumb Code  1096  vmc.o(.text)
    deng_control                             0x08028bad   Thumb Code   760  vmc.o(.text)
    cal_force_y                              0x08028ea5   Thumb Code   912  vmc.o(.text)
    cal_force_z                              0x08029235   Thumb Code   458  vmc.o(.text)
    cal_force_deng                           0x080293ff   Thumb Code  1080  vmc.o(.text)
    state_check                              0x0802b199   Thumb Code  1676  vmc.o(.text)
    power_task                               0x0802b825   Thumb Code  1430  vmc.o(.text)
    trig_extend                              0x0802bdbb   Thumb Code  2076  vmc.o(.text)
    jump_4leg                                0x0802c5d7   Thumb Code  3884  vmc.o(.text)
    onboard_control                          0x0802d503   Thumb Code   584  vmc.o(.text)
    VMC_OLDX_VER1                            0x0802d74b   Thumb Code  5476  vmc.o(.text)
    __aeabi_memcpy4                          0x0802ecd5   Thumb Code     0  rt_memcpy_w.o(.text)
    __aeabi_memcpy8                          0x0802ecd5   Thumb Code     0  rt_memcpy_w.o(.text)
    __rt_memcpy_w                            0x0802ecd5   Thumb Code   100  rt_memcpy_w.o(.text)
    _memcpy_lastbytes_aligned                0x0802ed1d   Thumb Code     0  rt_memcpy_w.o(.text)
    __aeabi_memclr4                          0x0802ed39   Thumb Code     0  rt_memclr_w.o(.text)
    __aeabi_memclr8                          0x0802ed39   Thumb Code     0  rt_memclr_w.o(.text)
    __rt_memclr_w                            0x0802ed39   Thumb Code    78  rt_memclr_w.o(.text)
    _memset_w                                0x0802ed3d   Thumb Code     0  rt_memclr_w.o(.text)
    __use_two_region_memory                  0x0802ed87   Thumb Code     2  heapauxi.o(.text)
    __rt_heap_escrow$2region                 0x0802ed89   Thumb Code     2  heapauxi.o(.text)
    __rt_heap_expand$2region                 0x0802ed8b   Thumb Code     2  heapauxi.o(.text)
    __read_errno                             0x0802ed8d   Thumb Code    10  _rserrno.o(.text)
    __set_errno                              0x0802ed97   Thumb Code    12  _rserrno.o(.text)
    __aeabi_errno_addr                       0x0802eda5   Thumb Code     8  rt_errno_addr_intlibspace.o(.text)
    __errno$intlibspace                      0x0802eda5   Thumb Code     0  rt_errno_addr_intlibspace.o(.text)
    __rt_errno_addr$intlibspace              0x0802eda5   Thumb Code     0  rt_errno_addr_intlibspace.o(.text)
    __user_libspace                          0x0802edad   Thumb Code     8  libspace.o(.text)
    __user_perproc_libspace                  0x0802edad   Thumb Code     0  libspace.o(.text)
    __user_perthread_libspace                0x0802edad   Thumb Code     0  libspace.o(.text)
    __user_setup_stackheap                   0x0802edb5   Thumb Code    74  sys_stackheap_outer.o(.text)
    exit                                     0x0802edff   Thumb Code    18  exit.o(.text)
    _sys_exit                                0x0802ee11   Thumb Code     8  sys_exit.o(.text)
    __I$use$semihosting                      0x0802ee1d   Thumb Code     0  use_no_semi.o(.text)
    __use_no_semihosting_swi                 0x0802ee1d   Thumb Code     2  use_no_semi.o(.text)
    __ARM_fpclassify                         0x0802ee1f   Thumb Code    48  fpclassify.o(i.__ARM_fpclassify)
    __semihosting_library_function           0x0802ee1f   Thumb Code     0  indicate_semi.o(.text)
    __ARM_fpclassifyf                        0x0802ee4f   Thumb Code    38  fpclassifyf.o(i.__ARM_fpclassifyf)
    __hardfp_acos                            0x0802ee79   Thumb Code   738  acos.o(i.__hardfp_acos)
    __hardfp_asin                            0x0802f1d1   Thumb Code   770  asin.o(i.__hardfp_asin)
    __hardfp_atan                            0x0802f531   Thumb Code   622  atan.o(i.__hardfp_atan)
    __hardfp_atan2                           0x0802f809   Thumb Code   432  atan2.o(i.__hardfp_atan2)
    __hardfp_atan2f                          0x0802f9f9   Thumb Code   502  atan2f.o(i.__hardfp_atan2f)
    __hardfp_cos                             0x0802fc49   Thumb Code   180  cos.o(i.__hardfp_cos)
    __hardfp_cosf                            0x0802fd11   Thumb Code   280  cosf.o(i.__hardfp_cosf)
    __hardfp_fabs                            0x0802fe61   Thumb Code    20  fabs.o(i.__hardfp_fabs)
    __hardfp_pow                             0x0802fe79   Thumb Code  3072  pow.o(i.__hardfp_pow)
    __hardfp_sin                             0x08030ac9   Thumb Code   180  sin.o(i.__hardfp_sin)
    __hardfp_sinf                            0x08030b91   Thumb Code   344  sinf.o(i.__hardfp_sinf)
    __hardfp_sqrt                            0x08030d21   Thumb Code   122  sqrt.o(i.__hardfp_sqrt)
    __hardfp_tan                             0x08030da1   Thumb Code   108  tan.o(i.__hardfp_tan)
    __ieee754_rem_pio2                       0x08030e21   Thumb Code   938  rred.o(i.__ieee754_rem_pio2)
    __kernel_cos                             0x08031259   Thumb Code   322  cos_i.o(i.__kernel_cos)
    __kernel_poly                            0x080313c9   Thumb Code   248  poly.o(i.__kernel_poly)
    __kernel_sin                             0x080314c1   Thumb Code   280  sin_i.o(i.__kernel_sin)
    __kernel_tan                             0x080315f1   Thumb Code   764  tan_i.o(i.__kernel_tan)
    __mathlib_dbl_divzero                    0x08031941   Thumb Code    28  dunder.o(i.__mathlib_dbl_divzero)
    __mathlib_dbl_infnan                     0x08031971   Thumb Code    20  dunder.o(i.__mathlib_dbl_infnan)
    __mathlib_dbl_infnan2                    0x08031985   Thumb Code    20  dunder.o(i.__mathlib_dbl_infnan2)
    __mathlib_dbl_invalid                    0x08031999   Thumb Code    24  dunder.o(i.__mathlib_dbl_invalid)
    __mathlib_dbl_overflow                   0x080319b9   Thumb Code    24  dunder.o(i.__mathlib_dbl_overflow)
    __mathlib_dbl_underflow                  0x080319d9   Thumb Code    24  dunder.o(i.__mathlib_dbl_underflow)
    __mathlib_flt_infnan                     0x080319f9   Thumb Code     6  funder.o(i.__mathlib_flt_infnan)
    __mathlib_flt_infnan2                    0x080319ff   Thumb Code     6  funder.o(i.__mathlib_flt_infnan2)
    __mathlib_flt_invalid                    0x08031a05   Thumb Code    10  funder.o(i.__mathlib_flt_invalid)
    __mathlib_flt_underflow                  0x08031a15   Thumb Code    10  funder.o(i.__mathlib_flt_underflow)
    __mathlib_rredf2                         0x08031a25   Thumb Code   316  rredf.o(i.__mathlib_rredf2)
    atan                                     0x08031b79   Thumb Code    16  atan.o(i.atan)
    fabs                                     0x08031b89   Thumb Code    24  fabs.o(i.fabs)
    sqrt                                     0x08031ba1   Thumb Code   110  sqrt.o(i.sqrt)
    __aeabi_dneg                             0x08031c0f   Thumb Code     0  basic.o(x$fpl$basic)
    _dneg                                    0x08031c0f   Thumb Code     6  basic.o(x$fpl$basic)
    __aeabi_fneg                             0x08031c15   Thumb Code     0  basic.o(x$fpl$basic)
    _fneg                                    0x08031c15   Thumb Code     6  basic.o(x$fpl$basic)
    _dabs                                    0x08031c1b   Thumb Code     6  basic.o(x$fpl$basic)
    _fabs                                    0x08031c21   Thumb Code     6  basic.o(x$fpl$basic)
    __aeabi_d2f                              0x08031c29   Thumb Code     0  d2f.o(x$fpl$d2f)
    _d2f                                     0x08031c29   Thumb Code    98  d2f.o(x$fpl$d2f)
    __aeabi_dadd                             0x08031c8d   Thumb Code     0  daddsub_clz.o(x$fpl$dadd)
    _dadd                                    0x08031c8d   Thumb Code   332  daddsub_clz.o(x$fpl$dadd)
    __fpl_dcheck_NaN1                        0x08031ddd   Thumb Code    10  dcheck1.o(x$fpl$dcheck1)
    __fpl_dcmp_Inf                           0x08031ded   Thumb Code    24  dcmpi.o(x$fpl$dcmpinf)
    __aeabi_ddiv                             0x08031e05   Thumb Code     0  ddiv.o(x$fpl$ddiv)
    _ddiv                                    0x08031e05   Thumb Code   552  ddiv.o(x$fpl$ddiv)
    __aeabi_cdcmpeq                          0x080320b5   Thumb Code     0  deqf.o(x$fpl$deqf)
    _dcmpeq                                  0x080320b5   Thumb Code   120  deqf.o(x$fpl$deqf)
    __aeabi_d2iz                             0x0803212d   Thumb Code     0  dfix.o(x$fpl$dfix)
    _dfix                                    0x0803212d   Thumb Code    94  dfix.o(x$fpl$dfix)
    __aeabi_d2uiz                            0x0803218d   Thumb Code     0  dfixu.o(x$fpl$dfixu)
    _dfixu                                   0x0803218d   Thumb Code    90  dfixu.o(x$fpl$dfixu)
    __aeabi_i2d                              0x080321e7   Thumb Code     0  dflt_clz.o(x$fpl$dflt)
    _dflt                                    0x080321e7   Thumb Code    46  dflt_clz.o(x$fpl$dflt)
    __aeabi_ui2d                             0x08032215   Thumb Code     0  dflt_clz.o(x$fpl$dfltu)
    _dfltu                                   0x08032215   Thumb Code    38  dflt_clz.o(x$fpl$dfltu)
    __aeabi_cdcmple                          0x0803223d   Thumb Code     0  dleqf.o(x$fpl$dleqf)
    _dcmple                                  0x0803223d   Thumb Code   120  dleqf.o(x$fpl$dleqf)
    __fpl_dcmple_InfNaN                      0x0803229f   Thumb Code     0  dleqf.o(x$fpl$dleqf)
    __aeabi_dmul                             0x080322b5   Thumb Code     0  dmul.o(x$fpl$dmul)
    _dmul                                    0x080322b5   Thumb Code   332  dmul.o(x$fpl$dmul)
    __fpl_dnaninf                            0x08032409   Thumb Code   156  dnaninf.o(x$fpl$dnaninf)
    __fpl_dretinf                            0x080324a5   Thumb Code    12  dretinf.o(x$fpl$dretinf)
    __aeabi_cdrcmple                         0x080324b1   Thumb Code     0  drleqf.o(x$fpl$drleqf)
    _drcmple                                 0x080324b1   Thumb Code   108  drleqf.o(x$fpl$drleqf)
    __aeabi_drsub                            0x0803251d   Thumb Code     0  daddsub_clz.o(x$fpl$drsb)
    _drsb                                    0x0803251d   Thumb Code    22  daddsub_clz.o(x$fpl$drsb)
    _dsqrt                                   0x08032535   Thumb Code   404  dsqrt_umaal.o(x$fpl$dsqrt)
    __aeabi_dsub                             0x080326cd   Thumb Code     0  daddsub_clz.o(x$fpl$dsub)
    _dsub                                    0x080326cd   Thumb Code   464  daddsub_clz.o(x$fpl$dsub)
    __aeabi_f2d                              0x080328a1   Thumb Code     0  f2d.o(x$fpl$f2d)
    _f2d                                     0x080328a1   Thumb Code    86  f2d.o(x$fpl$f2d)
    __fpl_fnaninf                            0x080328f7   Thumb Code   140  fnaninf.o(x$fpl$fnaninf)
    _fp_init                                 0x08032983   Thumb Code    10  fpinit.o(x$fpl$fpinit)
    __fplib_config_fpu_vfp                   0x0803298b   Thumb Code     0  fpinit.o(x$fpl$fpinit)
    __fplib_config_pureend_doubles           0x0803298b   Thumb Code     0  fpinit.o(x$fpl$fpinit)
    __fpl_fretinf                            0x0803298d   Thumb Code    10  fretinf.o(x$fpl$fretinf)
    __fpl_return_NaN                         0x08032997   Thumb Code   100  retnan.o(x$fpl$retnan)
    __ARM_scalbn                             0x080329fb   Thumb Code    92  scalbn.o(x$fpl$scalbn)
    __fpl_cmpreturn                          0x08032a57   Thumb Code    48  trapv.o(x$fpl$trapveneer)
    OSUnMapTbl                               0x08032a86   Data         256  os_core.o(.constdata)
    __I$use$fp                               0x08032a86   Number         0  usenofp.o(x$fpl$usenofp)
    __mathlib_zero                           0x08032dc8   Data           8  qnan.o(.constdata)
    Region$$Table$$Base                      0x08032f40   Number         0  anon$$obj.o(Region$$Table)
    Region$$Table$$Limit                     0x08032f60   Number         0  anon$$obj.o(Region$$Table)
    en_nav                                   0x20000000   Data           1  ucos_task.o(.data)
    en_hml                                   0x20000001   Data           1  ucos_task.o(.data)
    FLT_ACC                                  0x20000004   Data           4  ucos_task.o(.data)
    k_rc_spd                                 0x20000008   Data           4  ucos_task.o(.data)
    k_z_c                                    0x2000000c   Data           4  ucos_task.o(.data)
    force_time_set                           0x20000010   Data           4  ucos_task.o(.data)
    force_time                               0x20000014   Data           4  ucos_task.o(.data)
    spd_force                                0x20000018   Data           4  ucos_task.o(.data)
    UART_UP_LOAD_SEL                         0x2000001c   Data           1  ucos_task.o(.data)
    ground_check_show                        0x20000020   Data           4  ucos_task.o(.data)
    tmr1                                     0x20000024   Data           4  ucos_task.o(.data)
    tmr2                                     0x20000028   Data           4  ucos_task.o(.data)
    tmr3                                     0x2000002c   Data           4  ucos_task.o(.data)
    cpuusage                                 0x20000030   Data           2  ucos_task.o(.data)
    msg_key                                  0x20000060   Data           4  main.o(.data)
    q_msg                                    0x20000064   Data           4  main.o(.data)
    flags_key                                0x20000068   Data           4  main.o(.data)
    CHE                                      0x2000006c   Data           1  main.o(.data)
    hard_fall                                0x2000006d   Data           1  stm32f4xx_it.o(.data)
    SystemCoreClock                          0x20000070   Data           4  system_stm32f4xx.o(.data)
    AHBPrescTable                            0x20000074   Data          16  system_stm32f4xx.o(.data)
    OSCtxSwCtr                               0x20000098   Data           4  os_core.o(.data)
    OSEventFreeList                          0x2000009c   Data           4  os_core.o(.data)
    OSFlagFreeList                           0x200000a0   Data           4  os_core.o(.data)
    OSCPUUsage                               0x200000a4   Data           1  os_core.o(.data)
    OSIdleCtrMax                             0x200000a8   Data           4  os_core.o(.data)
    OSIdleCtrRun                             0x200000ac   Data           4  os_core.o(.data)
    OSStatRdy                                0x200000b0   Data           1  os_core.o(.data)
    OSIntNesting                             0x200000b1   Data           1  os_core.o(.data)
    OSLockNesting                            0x200000b2   Data           1  os_core.o(.data)
    OSPrioCur                                0x200000b3   Data           1  os_core.o(.data)
    OSPrioHighRdy                            0x200000b4   Data           1  os_core.o(.data)
    OSRdyGrp                                 0x200000b5   Data           1  os_core.o(.data)
    OSRdyTbl                                 0x200000b6   Data           8  os_core.o(.data)
    OSRunning                                0x200000be   Data           1  os_core.o(.data)
    OSTaskCtr                                0x200000bf   Data           1  os_core.o(.data)
    OSIdleCtr                                0x200000c0   Data           4  os_core.o(.data)
    OSTCBCur                                 0x200000c4   Data           4  os_core.o(.data)
    OSTCBFreeList                            0x200000c8   Data           4  os_core.o(.data)
    OSTCBHighRdy                             0x200000cc   Data           4  os_core.o(.data)
    OSTCBList                                0x200000d0   Data           4  os_core.o(.data)
    OSTickStepState                          0x200000d4   Data           1  os_core.o(.data)
    OSQFreeList                              0x200000d8   Data           4  os_core.o(.data)
    OSTime                                   0x200000dc   Data           4  os_core.o(.data)
    OSTmrFree                                0x200000e0   Data           2  os_core.o(.data)
    OSTmrUsed                                0x200000e2   Data           2  os_core.o(.data)
    OSTmrTime                                0x200000e4   Data           4  os_core.o(.data)
    OSTmrSem                                 0x200000e8   Data           4  os_core.o(.data)
    OSTmrSemSignal                           0x200000ec   Data           4  os_core.o(.data)
    OSTmrFreeList                            0x200000f0   Data           4  os_core.o(.data)
    OSInterrputSum                           0x200000f4   Data           4  os_cpu_c.o(.data)
    k_sensitivity                            0x200000fc   Data          12  flash.o(.data)
    yaw_off_qr                               0x20000108   Data           4  flash.o(.data)
    FLASH_SIZE                               0x2000010c   Data           4  flash.o(.data)
    LENGTH_OF_DRONE                          0x20000110   Data           2  flash.o(.data)
    H_INT                                    0x20000114   Data           4  flash.o(.data)
    SONAR_HEIGHT                             0x20000118   Data           4  flash.o(.data)
    need_init_mems                           0x2000011c   Data           1  flash.o(.data)
    SBUS_MIN                                 0x2000011e   Data           2  flash.o(.data)
    SBUS_MAX                                 0x20000120   Data           2  flash.o(.data)
    SBUS_MID                                 0x20000122   Data           2  flash.o(.data)
    SBUS_MIN_A                               0x20000124   Data           2  flash.o(.data)
    SBUS_MAX_A                               0x20000126   Data           2  flash.o(.data)
    SBUS_MID_A                               0x20000128   Data           2  flash.o(.data)
    LED                                      0x2000012c   Data           3  led_fc.o(.data)
    dj_sel                                   0x20000130   Data           4  led_fc.o(.data)
    Rc_Pwm_Out_mine                          0x2000014c   Data          32  pwm_out.o(.data)
    dj_out                                   0x2000016c   Data          48  pwm_out.o(.data)
    dj_pan                                   0x2000019c   Data           8  pwm_out.o(.data)
    k_ad                                     0x200001a4   Data           4  bat.o(.data)
    ground_v                                 0x200001a8   Data           5  bat.o(.data)
    ground_vad                               0x200001ad   Data           5  bat.o(.data)
    ground_press_max                         0x200001b4   Data          20  bat.o(.data)
    ground_press_min                         0x200001c8   Data          20  bat.o(.data)
    k_check_force                            0x200001dc   Data           4  bat.o(.data)
    k_check_dforce                           0x200001e0   Data           4  bat.o(.data)
    music_sel                                0x200001f0   Data           1  beep.o(.data)
    start_music_px4                          0x200001f1   Data          36  beep.o(.data)
    start_music_windows                      0x20000215   Data          46  beep.o(.data)
    start_music_micro                        0x20000243   Data          46  beep.o(.data)
    mems_gps_music                           0x20000271   Data           6  beep.o(.data)
    mems_right_music                         0x20000277   Data           6  beep.o(.data)
    mems_error_music                         0x2000027d   Data           8  beep.o(.data)
    mission_music                            0x20000285   Data           6  beep.o(.data)
    mems_wayup_music                         0x2000028b   Data           6  beep.o(.data)
    bat_error_music                          0x20000291   Data          64  beep.o(.data)
    rc_error_music                           0x200002d1   Data          16  beep.o(.data)
    hml_cal_music                            0x200002e1   Data          16  beep.o(.data)
    start_music_pix                          0x200002f1   Data          18  beep.o(.data)
    dj_cal_music1                            0x20000303   Data           8  beep.o(.data)
    dj_cal_music2                            0x2000030b   Data          12  beep.o(.data)
    dj_cal_music3                            0x20000317   Data          16  beep.o(.data)
    dj_cal_music4                            0x20000327   Data          20  beep.o(.data)
    dj_cal_music5                            0x2000033b   Data          24  beep.o(.data)
    dj_cal_music6                            0x20000353   Data          28  beep.o(.data)
    dj_cal_music7                            0x2000036f   Data          32  beep.o(.data)
    dj_cal_music8                            0x2000038f   Data          36  beep.o(.data)
    fc_state_beep                            0x200003b3   Data           3  beep.o(.data)
    beep_state                               0x200003b6   Data          16  beep.o(.data)
    fc_save_gps_beep                         0x200003c6   Data           1  beep.o(.data)
    beep_gps_save                            0x200003c7   Data           8  beep.o(.data)
    test_to24                                0x200003cf   Data           1  beep.o(.data)
    Beat_delay                               0x200003d0   Data          14  beep.o(.data)
    tone_table                               0x200003de   Data          48  beep.o(.data)
    TX_ADDRESS                               0x20000414   Data           5  nrf.o(.data)
    RX_ADDRESS                               0x20000419   Data           5  nrf.o(.data)
    W25QXX_TYPE                              0x2000041e   Data           2  flash_w25.o(.data)
    I2C_FastMode_VL53                        0x20000420   Data           1  iic_vl53.o(.data)
    delay_vl53                               0x20000421   Data           1  iic_vl53.o(.data)
    ground_check_time                        0x20000424   Data           4  iic_vl53.o(.data)
    set_dis                                  0x20000428   Data           4  iic_vl53.o(.data)
    TxCounter1                               0x20000432   Data           1  usart_fc.o(.data)
    count1                                   0x20000433   Data           1  usart_fc.o(.data)
    RxState1                                 0x20000434   Data           1  usart_fc.o(.data)
    RxBufferNum1                             0x20000435   Data           1  usart_fc.o(.data)
    RxBufferCnt1                             0x20000436   Data           1  usart_fc.o(.data)
    RxLen1                                   0x20000437   Data           1  usart_fc.o(.data)
    TxCounter2                               0x2000043a   Data           1  usart_fc.o(.data)
    count2                                   0x2000043b   Data           1  usart_fc.o(.data)
    RxState2                                 0x2000043c   Data           1  usart_fc.o(.data)
    RxBufferNum2                             0x2000043d   Data           1  usart_fc.o(.data)
    RxBufferCnt2                             0x2000043e   Data           1  usart_fc.o(.data)
    RxLen2                                   0x2000043f   Data           1  usart_fc.o(.data)
    TxCounter3                               0x20000442   Data           1  usart_fc.o(.data)
    count3                                   0x20000443   Data           1  usart_fc.o(.data)
    RxState3                                 0x20000444   Data           1  usart_fc.o(.data)
    RxBufferNum3                             0x20000445   Data           1  usart_fc.o(.data)
    RxBufferCnt3                             0x20000446   Data           1  usart_fc.o(.data)
    RxLen3                                   0x20000447   Data           1  usart_fc.o(.data)
    TxCounter4                               0x2000044a   Data           1  usart_fc.o(.data)
    count4                                   0x2000044b   Data           1  usart_fc.o(.data)
    RxState4                                 0x2000044c   Data           1  usart_fc.o(.data)
    RxBufferNum4                             0x2000044d   Data           1  usart_fc.o(.data)
    RxBufferCnt4                             0x2000044e   Data           1  usart_fc.o(.data)
    RxLen4                                   0x2000044f   Data           1  usart_fc.o(.data)
    leg_uart_cnt                             0x20000454   Data           2  usart_fc.o(.data)
    nrf_uart_cnt1                            0x20000456   Data           2  usart_fc.o(.data)
    KEY                                      0x20000460   Data           8  rc_mine.o(.data)
    send_pid                                 0x20000468   Data           1  rc_mine.o(.data)
    read_pid                                 0x20000469   Data           1  rc_mine.o(.data)
    data_rate                                0x2000046a   Data           2  rc_mine.o(.data)
    view_plan                                0x2000046c   Data           1  rc_mine.o(.data)
    acc_3d_step                              0x20000478   Data           1  mems.o(.data)
    FLT_MAG                                  0x2000047c   Data           4  mems.o(.data)
    sum_temp_att                             0x20000480   Data           8  mems.o(.data)
    acc_sum_cnt                              0x20000488   Data           2  mems.o(.data)
    acc_sum_cnt_3d                           0x2000048a   Data           2  mems.o(.data)
    acc_smple_cnt_3d                         0x2000048c   Data           2  mems.o(.data)
    gyro_sum_cnt                             0x2000048e   Data           2  mems.o(.data)
    filter_cnt                               0x20000490   Data           1  mems.o(.data)
    filter_cnt_old                           0x20000491   Data           1  mems.o(.data)
    test_ang                                 0x20000494   Data           4  mems.o(.data)
    test_ang_old                             0x20000498   Data           4  mems.o(.data)
    test_ang_d                               0x2000049c   Data           4  mems.o(.data)
    test_fli_a                               0x200004a0   Data           4  mems.o(.data)
    test_i                                   0x200004a4   Data           4  mems.o(.data)
    MAX_HML                                  0x200004a8   Data           4  mems.o(.data)
    id                                       0x200004f0   Data           3  icm20602.o(.data)
    fly_ready                                0x200004f8   Data           1  imu.o(.data)
    Roll                                     0x200004fc   Data           4  imu.o(.data)
    Pitch                                    0x20000500   Data           4  imu.o(.data)
    Yaw                                      0x20000504   Data           4  imu.o(.data)
    q0                                       0x20000508   Data           4  imu.o(.data)
    q1                                       0x2000050c   Data           4  imu.o(.data)
    q2                                       0x20000510   Data           4  imu.o(.data)
    q3                                       0x20000514   Data           4  imu.o(.data)
    ref_q                                    0x20000518   Data          16  imu.o(.data)
    norm_acc                                 0x20000528   Data           4  imu.o(.data)
    norm_q                                   0x2000052c   Data           4  imu.o(.data)
    norm_acc_lpf                             0x20000530   Data           4  imu.o(.data)
    Kp_yaw                                   0x20000534   Data           4  imu.o(.data)
    beta_start                               0x20000538   Data           4  imu.o(.data)
    beta_end                                 0x2000053c   Data           4  imu.o(.data)
    beta_step                                0x20000540   Data           4  imu.o(.data)
    beta                                     0x20000544   Data           4  imu.o(.data)
    accConfidenceDecay                       0x20000548   Data           4  imu.o(.data)
    hmlConfidenceDecay                       0x2000054c   Data           4  imu.o(.data)
    accConfidence                            0x20000550   Data           4  imu.o(.data)
    hmlConfidence                            0x20000554   Data           4  imu.o(.data)
    norm_hml_view                            0x20000558   Data           4  imu.o(.data)
    hmlOneMAG                                0x2000055c   Data           4  imu.o(.data)
    init_hml_norm                            0x20000560   Data           1  imu.o(.data)
    mag_cal_use_compass                      0x20000561   Data           1  imu.o(.data)
    init_hml_norm_cnt                        0x20000562   Data           2  imu.o(.data)
    gait_test                                0x20000594   Data          20  vmc_demo.o(.data)
    force_dj_off_reset                       0x200005a8   Data           1  vmc_demo.o(.data)
    reset_k                                  0x200005ac   Data           4  vmc_demo.o(.data)
    mission_sel_lock                         0x200005f8   Data           4  vmc_sdk.o(.data)
    mission_state                            0x200005fc   Data           4  vmc_sdk.o(.data)
    mission_flag                             0x20000600   Data           1  vmc_sdk.o(.data)
    param_track                              0x20000604   Data          20  vmc_sdk.o(.data)
    k_traj                                   0x20000618   Data           4  vmc_sdk.o(.data)
    fast_atan_table                          0x2000063c   Data        1028  my_math.o(.data)
    Q_pose                                   0x20000a40   Data          32  pose_fushion.o(.data)
    R_pose                                   0x20000a60   Data          24  pose_fushion.o(.data)
    w_spd                                    0x20000a78   Data           4  pose_fushion.o(.data)
    k_fack_yaw                               0x20000a7c   Data           4  pose_fushion.o(.data)
    P_f32                                    0x20000a80   Data         128  baro_fushion.o(.data)
    Qs_4_4                                   0x20000b00   Data          32  baro_fushion.o(.data)
    Rs_2_2                                   0x20000b20   Data          16  baro_fushion.o(.data)
    FLT_BARO                                 0x20000b30   Data           4  baro_fushion.o(.data)
    delay_sel                                0x20000b38   Data          16  baro_kf.o(.data)
    rtInf                                    0x20000b48   Data           8  rt_nonfinite.o(.data)
    rtMinusInf                               0x20000b50   Data           8  rt_nonfinite.o(.data)
    rtNaN                                    0x20000b58   Data           8  rt_nonfinite.o(.data)
    rtInfF                                   0x20000b60   Data           4  rt_nonfinite.o(.data)
    rtMinusInfF                              0x20000b64   Data           4  rt_nonfinite.o(.data)
    rtNaNF                                   0x20000b68   Data           4  rt_nonfinite.o(.data)
    sbus_data_i                              0x20000b6c   Data          26  sbus.o(.data)
    sbus_data                                0x20000b86   Data          26  sbus.o(.data)
    channels                                 0x20000ba0   Data          36  sbus.o(.data)
    failsafe_status                          0x20000bc4   Data           1  sbus.o(.data)
    sbus_passthrough                         0x20000bc5   Data           1  sbus.o(.data)
    MIN_Z                                    0x20000bc8   Data           4  vmc.o(.data)
    MAX_Z                                    0x20000bcc   Data           4  vmc.o(.data)
    MIN_X                                    0x20000bd0   Data           4  vmc.o(.data)
    MAX_X                                    0x20000bd4   Data           4  vmc.o(.data)
    MAX_SPD                                  0x20000bd8   Data           4  vmc.o(.data)
    MAX_SPD_RAD                              0x20000bdc   Data           4  vmc.o(.data)
    deng_sel                                 0x20000be0   Data           1  vmc.o(.data)
    end_tirg_rate                            0x20000be4   Data           4  vmc.o(.data)
    MAX_DENG_ANGLE                           0x20000be8   Data           4  vmc.o(.data)
    T_GAIN                                   0x20000bec   Data           4  vmc.o(.data)
    FLT_ATT_CTRL                             0x20000bf0   Data           8  vmc.o(.data)
    FLT_ATT_TRIG                             0x20000bf8   Data           4  vmc.o(.data)
    FLT_ATT_CTRL_Y                           0x20000bfc   Data           4  vmc.o(.data)
    FLT_SPD_END                              0x20000c00   Data           4  vmc.o(.data)
    FLT_SPD_END_Z                            0x20000c04   Data           4  vmc.o(.data)
    FLT_POS_Z                                0x20000c08   Data           4  vmc.o(.data)
    FLT_AUTO_T                               0x20000c0c   Data           4  vmc.o(.data)
    FLT_TORQUE                               0x20000c10   Data           4  vmc.o(.data)
    FLT_COG_OFF                              0x20000c14   Data           4  vmc.o(.data)
    FLT_ATT_SPD_ERR                          0x20000c18   Data           4  vmc.o(.data)
    FLT_ENCODER                              0x20000c1c   Data           4  vmc.o(.data)
    deng_param                               0x20000c20   Data          20  vmc.o(.data)
    flag_att_force                           0x20000c34   Data          12  vmc.o(.data)
    block_yaw                                0x20000c66   Data           1  vmc.o(.data)
    gait_change_param                        0x20000c74   Data          24  vmc.o(.data)
    ESO_PARAM                                0x20000c8c   Data           8  vmc.o(.data)
    k_nground                                0x20000c94   Data           4  vmc.o(.data)
    k_att                                    0x20000c98   Data           4  vmc.o(.data)
    gain_check                               0x20000c9c   Data          20  vmc.o(.data)
    k_att_spd                                0x20000cb0   Data           4  vmc.o(.data)
    test1                                    0x20000cb4   Data           1  vmc.o(.data)
    att_trig_reset_dead                      0x20000cb8   Data           4  vmc.o(.data)
    soft_param                               0x20000cbc   Data           8  vmc.o(.data)
    k_gain                                   0x20000cc4   Data           4  vmc.o(.data)
    test_epos                                0x20000cc8   Data          12  vmc.o(.data)
    leg_dt                                   0x20000d24   Data          60  ucos_task.o(.bss)
    FUSION_TASK_STK                          0x20000d60   Data       12800  ucos_task.o(.bss)
    POSE_FUSION_TASK_STK                     0x20003f60   Data       38400  ucos_task.o(.bss)
    BRAIN_TASK_STK                           0x2000d560   Data       38400  ucos_task.o(.bss)
    UART_TASK_STK                            0x20016b60   Data        5120  ucos_task.o(.bss)
    START_TASK_STK                           0x20017f6c   Data         256  main.o(.bss)
    MsgGrp                                   0x2001806c   Data        1024  main.o(.bss)
    OSEventTbl                               0x2001846c   Data         200  os_core.o(.bss)
    OSFlagTbl                                0x20018534   Data          80  os_core.o(.bss)
    OSTaskStatStk                            0x20018584   Data         512  os_core.o(.bss)
    OSTaskIdleStk                            0x20018784   Data         512  os_core.o(.bss)
    OSTCBPrioTbl                             0x20018984   Data         256  os_core.o(.bss)
    OSTCBTbl                                 0x20018a84   Data        1848  os_core.o(.bss)
    OSQTbl                                   0x200191bc   Data         120  os_core.o(.bss)
    OSTmrTbl                                 0x20019234   Data         640  os_core.o(.bss)
    OSTmrTaskStk                             0x200194b4   Data         512  os_core.o(.bss)
    OSTmrWheelTbl                            0x200196b4   Data          64  os_core.o(.bss)
    Cycle_T                                  0x20019700   Data         180  time.o(.bss)
    ADC_Value                                0x200197b4   Data          10  bat.o(.bss)
    press_leg_end                            0x200197c0   Data          20  bat.o(.bss)
    flt_ground                               0x200197d4   Data          80  bat.o(.bss)
    bat                                      0x20019824   Data          24  bat.o(.bss)
    NRF24L01_RXDATA                          0x2001985a   Data          32  nrf.o(.bss)
    NRF24L01_TXDATA                          0x2001987a   Data          32  nrf.o(.bss)
    W25QXX_BUFFER                            0x2001989a   Data        4096  flash_w25.o(.bss)
    ls53                                     0x2001a89a   Data         120  iic_vl53.o(.bss)
    ls53_connect                             0x2001a912   Data          12  iic_vl53.o(.bss)
    flow                                     0x2001a948   Data          32  usart_fc.o(.bss)
    pi                                       0x2001a968   Data         168  usart_fc.o(.bss)
    TxBuffer1                                0x2001aa10   Data         256  usart_fc.o(.bss)
    RxBuffer1                                0x2001ab10   Data          50  usart_fc.o(.bss)
    TxBuffer2                                0x2001ab42   Data         256  usart_fc.o(.bss)
    RxBuffer2                                0x2001ac42   Data          80  usart_fc.o(.bss)
    TxBuffer3                                0x2001ac92   Data         256  usart_fc.o(.bss)
    Rx_Buf3                                  0x2001ad92   Data         256  usart_fc.o(.bss)
    RxBuffer3                                0x2001ae92   Data          50  usart_fc.o(.bss)
    TxBuffer4                                0x2001aec4   Data         256  usart_fc.o(.bss)
    RxBuffer4                                0x2001afc4   Data          50  usart_fc.o(.bss)
    Rc_Get_PWM                               0x2001aff6   Data          34  usart_fc.o(.bss)
    Rc_Get_SBUS                              0x2001b018   Data          34  usart_fc.o(.bss)
    SendBuff1                                0x2001b03a   Data         256  usart_fc.o(.bss)
    SendBuff3                                0x2001b13a   Data          32  usart_fc.o(.bss)
    BLE_DEBUG                                0x2001b15a   Data          32  usart_fc.o(.bss)
    module                                   0x2001b190   Data          13  rc_mine.o(.bss)
    PARAM_NRF                                0x2001b1a0   Data         216  rc_mine.o(.bss)
    Rc_Get                                   0x2001b278   Data          34  rc_mine.o(.bss)
    key_rc_reg                               0x2001b29a   Data         105  rc_mine.o(.bss)
    RC_GET                                   0x2001b304   Data          64  rc_mine.o(.bss)
    mems                                     0x2001b344   Data         300  mems.o(.bss)
    sum_temp                                 0x2001b470   Data          28  mems.o(.bss)
    sum_temp_3d                              0x2001b48c   Data          28  mems.o(.bss)
    FILT_BUF                                 0x2001b4a8   Data         154  mems.o(.bss)
    mems_tmp                                 0x2001b544   Data          28  mems.o(.bss)
    mpu_fil_tmp                              0x2001b560   Data          28  mems.o(.bss)
    mag_outer                                0x2001b57c   Data          12  mems.o(.bss)
    hml_lsq1                                 0x2001b588   Data         168  mems.o(.bss)
    lis3mdl                                  0x2001b660   Data         364  icm20602.o(.bss)
    reference_v                              0x2001b7cc   Data          12  imu.o(.bss)
    ref                                      0x2001b7d8   Data          60  imu.o(.bss)
    reference_vr                             0x2001b814   Data          12  imu.o(.bss)
    mag_sim_3d                               0x2001b820   Data          12  imu.o(.bss)
    ms5611                                   0x2001b82c   Data          56  ms5611.o(.bss)
    pid_force                                0x2001b87c   Data         324  vmc_demo.o(.bss)
    pit_out                                  0x2001b9c0   Data          16  vmc_demo.o(.bss)
    timer_sdk                                0x2001ba60   Data          40  vmc_sdk.o(.bss)
    flag_sdk                                 0x2001ba88   Data          10  vmc_sdk.o(.bss)
    med_filter_tmp                           0x2001baa0   Data        2400  fliter.o(.bss)
    med_filter_out                           0x2001c400   Data         120  fliter.o(.bss)
    med_fil_cnt                              0x2001c478   Data          30  fliter.o(.bss)
    traj                                     0x2001c498   Data        1760  my_math.o(.bss)
    nav                                      0x2001cb78   Data         160  pose_fushion.o(.bss)
    P_kf_pose                                0x2001cc18   Data         256  pose_fushion.o(.bss)
    X_kf_pose                                0x2001cd18   Data          64  pose_fushion.o(.bss)
    X_f32                                    0x2001cd58   Data          32  baro_fushion.o(.bss)
    hml_lsq                                  0x2001d138   Data         168  cycle_cal_oldx.o(.bss)
    vmc                                      0x2001d1e0   Data        2400  vmc.o(.bss)
    vmc_all                                  0x2001db40   Data        1164  vmc.o(.bss)
    h_pid                                    0x2001dfcc   Data         432  vmc.o(.bss)
    h_pid_all                                0x2001e17c   Data         108  vmc.o(.bss)
    att_pid                                  0x2001e1e8   Data         864  vmc.o(.bss)
    att_pid_all                              0x2001e548   Data         324  vmc.o(.bss)
    pos_pid                                  0x2001e68c   Data         216  vmc.o(.bss)
    pos_pid_all                              0x2001e764   Data         108  vmc.o(.bss)
    att_eso                                  0x2001e7dc   Data         576  vmc.o(.bss)
    __libspace_start                         0x2001ec28   Data          96  libspace.o(.bss)
    __temporary_stack_top$libspace           0x2001ec88   Data           0  libspace.o(.bss)



==============================================================================

Memory Map of the image

  Image Entry point : 0x08000189

  Load Region LR_IROM1 (Base: 0x08000000, Size: 0x00033c84, Max: 0x00100000, ABSOLUTE, COMPRESSED[0x00033638])

    Execution Region ER_IROM1 (Base: 0x08000000, Size: 0x00032f60, Max: 0x00100000, ABSOLUTE)

    Base Addr    Size         Type   Attr      Idx    E Section Name        Object

    0x08000000   0x00000188   Data   RO          443    RESET               startup_stm32f40_41xxx.o
    0x08000188   0x00000008   Code   RO         2148  * !!!main             c_w.l(__main.o)
    0x08000190   0x00000034   Code   RO         2589    !!!scatter          c_w.l(__scatter.o)
    0x080001c4   0x0000005a   Code   RO         2587    !!dczerorl2         c_w.l(__dczerorl2.o)
    0x0800021e   0x00000002   PAD
    0x08000220   0x0000001c   Code   RO         2591    !!handler_zi        c_w.l(__scatter_zi.o)
    0x0800023c   0x00000002   Code   RO         2456    .ARM.Collect$$libinit$$00000000  c_w.l(libinit.o)
    0x0800023e   0x00000004   Code   RO         2461    .ARM.Collect$$libinit$$00000001  c_w.l(libinit2.o)
    0x08000242   0x00000000   Code   RO         2464    .ARM.Collect$$libinit$$00000004  c_w.l(libinit2.o)
    0x08000242   0x00000000   Code   RO         2467    .ARM.Collect$$libinit$$0000000A  c_w.l(libinit2.o)
    0x08000242   0x00000000   Code   RO         2469    .ARM.Collect$$libinit$$0000000C  c_w.l(libinit2.o)
    0x08000242   0x00000000   Code   RO         2471    .ARM.Collect$$libinit$$0000000E  c_w.l(libinit2.o)
    0x08000242   0x00000000   Code   RO         2474    .ARM.Collect$$libinit$$00000011  c_w.l(libinit2.o)
    0x08000242   0x00000000   Code   RO         2476    .ARM.Collect$$libinit$$00000013  c_w.l(libinit2.o)
    0x08000242   0x00000000   Code   RO         2478    .ARM.Collect$$libinit$$00000015  c_w.l(libinit2.o)
    0x08000242   0x00000000   Code   RO         2480    .ARM.Collect$$libinit$$00000017  c_w.l(libinit2.o)
    0x08000242   0x00000000   Code   RO         2482    .ARM.Collect$$libinit$$00000019  c_w.l(libinit2.o)
    0x08000242   0x00000000   Code   RO         2484    .ARM.Collect$$libinit$$0000001B  c_w.l(libinit2.o)
    0x08000242   0x00000000   Code   RO         2486    .ARM.Collect$$libinit$$0000001D  c_w.l(libinit2.o)
    0x08000242   0x00000000   Code   RO         2488    .ARM.Collect$$libinit$$0000001F  c_w.l(libinit2.o)
    0x08000242   0x00000000   Code   RO         2490    .ARM.Collect$$libinit$$00000021  c_w.l(libinit2.o)
    0x08000242   0x00000000   Code   RO         2492    .ARM.Collect$$libinit$$00000023  c_w.l(libinit2.o)
    0x08000242   0x00000000   Code   RO         2494    .ARM.Collect$$libinit$$00000025  c_w.l(libinit2.o)
    0x08000242   0x00000000   Code   RO         2498    .ARM.Collect$$libinit$$0000002C  c_w.l(libinit2.o)
    0x08000242   0x00000000   Code   RO         2500    .ARM.Collect$$libinit$$0000002E  c_w.l(libinit2.o)
    0x08000242   0x00000000   Code   RO         2502    .ARM.Collect$$libinit$$00000030  c_w.l(libinit2.o)
    0x08000242   0x00000000   Code   RO         2504    .ARM.Collect$$libinit$$00000032  c_w.l(libinit2.o)
    0x08000242   0x00000002   Code   RO         2505    .ARM.Collect$$libinit$$00000033  c_w.l(libinit2.o)
    0x08000244   0x00000002   Code   RO         2527    .ARM.Collect$$libshutdown$$00000000  c_w.l(libshutdown.o)
    0x08000246   0x00000000   Code   RO         2540    .ARM.Collect$$libshutdown$$00000002  c_w.l(libshutdown2.o)
    0x08000246   0x00000000   Code   RO         2542    .ARM.Collect$$libshutdown$$00000004  c_w.l(libshutdown2.o)
    0x08000246   0x00000000   Code   RO         2545    .ARM.Collect$$libshutdown$$00000007  c_w.l(libshutdown2.o)
    0x08000246   0x00000000   Code   RO         2548    .ARM.Collect$$libshutdown$$0000000A  c_w.l(libshutdown2.o)
    0x08000246   0x00000000   Code   RO         2550    .ARM.Collect$$libshutdown$$0000000C  c_w.l(libshutdown2.o)
    0x08000246   0x00000000   Code   RO         2553    .ARM.Collect$$libshutdown$$0000000F  c_w.l(libshutdown2.o)
    0x08000246   0x00000002   Code   RO         2554    .ARM.Collect$$libshutdown$$00000010  c_w.l(libshutdown2.o)
    0x08000248   0x00000000   Code   RO         2346    .ARM.Collect$$rtentry$$00000000  c_w.l(__rtentry.o)
    0x08000248   0x00000000   Code   RO         2423    .ARM.Collect$$rtentry$$00000002  c_w.l(__rtentry2.o)
    0x08000248   0x00000006   Code   RO         2435    .ARM.Collect$$rtentry$$00000004  c_w.l(__rtentry4.o)
    0x0800024e   0x00000000   Code   RO         2425    .ARM.Collect$$rtentry$$00000009  c_w.l(__rtentry2.o)
    0x0800024e   0x00000004   Code   RO         2426    .ARM.Collect$$rtentry$$0000000A  c_w.l(__rtentry2.o)
    0x08000252   0x00000000   Code   RO         2428    .ARM.Collect$$rtentry$$0000000C  c_w.l(__rtentry2.o)
    0x08000252   0x00000008   Code   RO         2429    .ARM.Collect$$rtentry$$0000000D  c_w.l(__rtentry2.o)
    0x0800025a   0x00000002   Code   RO         2459    .ARM.Collect$$rtexit$$00000000  c_w.l(rtexit.o)
    0x0800025c   0x00000000   Code   RO         2509    .ARM.Collect$$rtexit$$00000002  c_w.l(rtexit2.o)
    0x0800025c   0x00000004   Code   RO         2510    .ARM.Collect$$rtexit$$00000003  c_w.l(rtexit2.o)
    0x08000260   0x00000006   Code   RO         2511    .ARM.Collect$$rtexit$$00000004  c_w.l(rtexit2.o)
    0x08000266   0x00000002   PAD
    0x08000268   0x00001e70   Code   RO            3    .text               ucos_task.o
    0x080020d8   0x00000254   Code   RO          273    .text               main.o
    0x0800232c   0x00000020   Code   RO          365    .text               stm32f4xx_it.o
    0x0800234c   0x00000210   Code   RO          417    .text               system_stm32f4xx.o
    0x0800255c   0x00000040   Code   RO          444    .text               startup_stm32f40_41xxx.o
    0x0800259c   0x00000108   Code   RO          450    .text               delay.o
    0x080026a4   0x000000e0   Code   RO          490    .text               misc.o
    0x08002784   0x00000294   Code   RO          510    .text               stm32f4xx_gpio.o
    0x08002a18   0x0000065c   Code   RO          553    .text               stm32f4xx_rcc.o
    0x08003074   0x00000454   Code   RO          595    .text               stm32f4xx_usart.o
    0x080034c8   0x00000ca2   Code   RO          615    .text               stm32f4xx_tim.o
    0x0800416a   0x00000002   PAD
    0x0800416c   0x00000694   Code   RO          635    .text               stm32f4xx_flash.o
    0x08004800   0x00000480   Code   RO          695    .text               stm32f4xx_spi.o
    0x08004c80   0x000003a8   Code   RO          715    .text               stm32f4xx_dma.o
    0x08005028   0x000000a0   Code   RO          735    .text               stm32f4xx_rng.o
    0x080050c8   0x00000464   Code   RO          775    .text               stm32f4xx_adc.o
    0x0800552c   0x00000040   Code   RO          795    .text               stm32f4xx_iwdg.o
    0x0800556c   0x00000894   Code   RO          815    .text               os_core.o
    0x08005e00   0x0000080c   Code   RO          843    .text               os_flag.o
    0x0800660c   0x000003cc   Code   RO          863    .text               os_mbox.o
    0x080069d8   0x000005e8   Code   RO          917    .text               os_q.o
    0x08006fc0   0x0000038c   Code   RO          937    .text               os_sem.o
    0x0800734c   0x000007c4   Code   RO          957    .text               os_task.o
    0x08007b10   0x000001b0   Code   RO          977    .text               os_time.o
    0x08007cc0   0x00000634   Code   RO          997    .text               os_tmr.o
    0x080082f4   0x000000c8   Code   RO         1015    .text               os_cpu_a.o
    0x080083bc   0x000001e8   Code   RO         1020    .text               os_cpu_c.o
    0x080085a4   0x00000288   Code   RO         1050    .text               spi.o
    0x0800882c   0x00000c3c   Code   RO         1070    .text               flash.o
    0x08009468   0x00000b70   Code   RO         1100    .text               led_fc.o
    0x08009fd8   0x00000740   Code   RO         1128    .text               pwm_out.o
    0x0800a718   0x0000017c   Code   RO         1159    .text               time.o
    0x0800a894   0x0000006c   Code   RO         1210    .text               rng.o
    0x0800a900   0x00000b04   Code   RO         1230    .text               bat.o
    0x0800b404   0x00000584   Code   RO         1258    .text               beep.o
    0x0800b988   0x0000002c   Code   RO         1284    .text               watch_dog.o
    0x0800b9b4   0x00000288   Code   RO         1304    .text               nrf.o
    0x0800bc3c   0x00000370   Code   RO         1357    .text               flash_w25.o
    0x0800bfac   0x00001df4   Code   RO         1385    .text               iic_vl53.o
    0x0800dda0   0x000015d0   Code   RO         1435    .text               usart_fc.o
    0x0800f370   0x00000d00   Code   RO         1463    .text               rc_mine.o
    0x08010070   0x00001384   Code   RO         1499    .text               mems.o
    0x080113f4   0x00000370   Code   RO         1531    .text               icm20602.o
    0x08011764   0x0000203c   Code   RO         1559    .text               imu.o
    0x080137a0   0x000005d0   Code   RO         1595    .text               ms5611.o
    0x08013d70   0x000064a0   Code   RO         1623    .text               vmc_demo.o
    0x0801a210   0x00000f24   Code   RO         1655    .text               vmc_sdk.o
    0x0801b134   0x000005ae   Code   RO         1710    .text               fliter.o
    0x0801b6e2   0x00000002   PAD
    0x0801b6e4   0x000017ca   Code   RO         1734    .text               my_math.o
    0x0801ceae   0x00000002   PAD
    0x0801ceb0   0x000004d0   Code   RO         1761    .text               pose_fushion.o
    0x0801d380   0x000001a0   Code   RO         1789    .text               baro_fushion.o
    0x0801d520   0x00001360   Code   RO         1820    .text               pose_kf.o
    0x0801e880   0x00000b04   Code   RO         1856    .text               baro_kf.o
    0x0801f384   0x00000100   Code   RO         1873    .text               rt_nonfinite.o
    0x0801f484   0x00000134   Code   RO         1900    .text               rtgetinf.o
    0x0801f5b8   0x000000c8   Code   RO         1912    .text               rtgetnan.o
    0x0801f680   0x00000260   Code   RO         1925    .text               sbus_oldx.lib(sbus.o)
    0x0801f8e0   0x00000a18   Code   RO         2015    .text               cycle_cal_oldx.lib(cycle_cal_oldx.o)
    0x080202f8   0x0000e9dc   Code   RO         2038    .text               F407_FC.lib(vmc.o)
    0x0802ecd4   0x00000064   Code   RO         2142    .text               c_w.l(rt_memcpy_w.o)
    0x0802ed38   0x0000004e   Code   RO         2144    .text               c_w.l(rt_memclr_w.o)
    0x0802ed86   0x00000006   Code   RO         2146    .text               c_w.l(heapauxi.o)
    0x0802ed8c   0x00000016   Code   RO         2347    .text               c_w.l(_rserrno.o)
    0x0802eda2   0x00000002   PAD
    0x0802eda4   0x00000008   Code   RO         2440    .text               c_w.l(rt_errno_addr_intlibspace.o)
    0x0802edac   0x00000008   Code   RO         2444    .text               c_w.l(libspace.o)
    0x0802edb4   0x0000004a   Code   RO         2447    .text               c_w.l(sys_stackheap_outer.o)
    0x0802edfe   0x00000012   Code   RO         2449    .text               c_w.l(exit.o)
    0x0802ee10   0x0000000c   Code   RO         2519    .text               c_w.l(sys_exit.o)
    0x0802ee1c   0x00000002   Code   RO         2530    .text               c_w.l(use_no_semi.o)
    0x0802ee1e   0x00000000   Code   RO         2532    .text               c_w.l(indicate_semi.o)
    0x0802ee1e   0x00000030   Code   RO         2381    i.__ARM_fpclassify  m_wm.l(fpclassify.o)
    0x0802ee4e   0x00000026   Code   RO         2383    i.__ARM_fpclassifyf  m_wm.l(fpclassifyf.o)
    0x0802ee74   0x00000004   PAD
    0x0802ee78   0x00000358   Code   RO         2188    i.__hardfp_acos     m_wm.l(acos.o)
    0x0802f1d0   0x00000360   Code   RO         2202    i.__hardfp_asin     m_wm.l(asin.o)
    0x0802f530   0x000002d8   Code   RO         2216    i.__hardfp_atan     m_wm.l(atan.o)
    0x0802f808   0x000001f0   Code   RO         2230    i.__hardfp_atan2    m_wm.l(atan2.o)
    0x0802f9f8   0x00000250   Code   RO         2242    i.__hardfp_atan2f   m_wm.l(atan2f.o)
    0x0802fc48   0x000000c8   Code   RO         2254    i.__hardfp_cos      m_wm.l(cos.o)
    0x0802fd10   0x00000150   Code   RO         2266    i.__hardfp_cosf     m_wm.l(cosf.o)
    0x0802fe60   0x00000014   Code   RO         2278    i.__hardfp_fabs     m_wm.l(fabs.o)
    0x0802fe74   0x00000004   PAD
    0x0802fe78   0x00000c50   Code   RO         2284    i.__hardfp_pow      m_wm.l(pow.o)
    0x08030ac8   0x000000c8   Code   RO         2298    i.__hardfp_sin      m_wm.l(sin.o)
    0x08030b90   0x00000190   Code   RO         2310    i.__hardfp_sinf     m_wm.l(sinf.o)
    0x08030d20   0x0000007a   Code   RO         2322    i.__hardfp_sqrt     m_wm.l(sqrt.o)
    0x08030d9a   0x00000006   PAD
    0x08030da0   0x00000080   Code   RO         2334    i.__hardfp_tan      m_wm.l(tan.o)
    0x08030e20   0x00000438   Code   RO         2402    i.__ieee754_rem_pio2  m_wm.l(rred.o)
    0x08031258   0x00000170   Code   RO         2364    i.__kernel_cos      m_wm.l(cos_i.o)
    0x080313c8   0x000000f8   Code   RO         2399    i.__kernel_poly     m_wm.l(poly.o)
    0x080314c0   0x00000130   Code   RO         2410    i.__kernel_sin      m_wm.l(sin_i.o)
    0x080315f0   0x00000350   Code   RO         2416    i.__kernel_tan      m_wm.l(tan_i.o)
    0x08031940   0x00000030   Code   RO         2367    i.__mathlib_dbl_divzero  m_wm.l(dunder.o)
    0x08031970   0x00000014   Code   RO         2368    i.__mathlib_dbl_infnan  m_wm.l(dunder.o)
    0x08031984   0x00000014   Code   RO         2369    i.__mathlib_dbl_infnan2  m_wm.l(dunder.o)
    0x08031998   0x00000020   Code   RO         2370    i.__mathlib_dbl_invalid  m_wm.l(dunder.o)
    0x080319b8   0x00000020   Code   RO         2371    i.__mathlib_dbl_overflow  m_wm.l(dunder.o)
    0x080319d8   0x00000020   Code   RO         2373    i.__mathlib_dbl_underflow  m_wm.l(dunder.o)
    0x080319f8   0x00000006   Code   RO         2386    i.__mathlib_flt_infnan  m_wm.l(funder.o)
    0x080319fe   0x00000006   Code   RO         2387    i.__mathlib_flt_infnan2  m_wm.l(funder.o)
    0x08031a04   0x00000010   Code   RO         2388    i.__mathlib_flt_invalid  m_wm.l(funder.o)
    0x08031a14   0x00000010   Code   RO         2391    i.__mathlib_flt_underflow  m_wm.l(funder.o)
    0x08031a24   0x00000154   Code   RO         2407    i.__mathlib_rredf2  m_wm.l(rredf.o)
    0x08031b78   0x00000010   Code   RO         2218    i.atan              m_wm.l(atan.o)
    0x08031b88   0x00000018   Code   RO         2280    i.fabs              m_wm.l(fabs.o)
    0x08031ba0   0x0000006e   Code   RO         2324    i.sqrt              m_wm.l(sqrt.o)
    0x08031c0e   0x00000018   Code   RO         2150    x$fpl$basic         fz_wm.l(basic.o)
    0x08031c26   0x00000002   PAD
    0x08031c28   0x00000062   Code   RO         2152    x$fpl$d2f           fz_wm.l(d2f.o)
    0x08031c8a   0x00000002   PAD
    0x08031c8c   0x00000150   Code   RO         2154    x$fpl$dadd          fz_wm.l(daddsub_clz.o)
    0x08031ddc   0x00000010   Code   RO         2442    x$fpl$dcheck1       fz_wm.l(dcheck1.o)
    0x08031dec   0x00000018   Code   RO         2349    x$fpl$dcmpinf       fz_wm.l(dcmpi.o)
    0x08031e04   0x000002b0   Code   RO         2161    x$fpl$ddiv          fz_wm.l(ddiv.o)
    0x080320b4   0x00000078   Code   RO         2164    x$fpl$deqf          fz_wm.l(deqf.o)
    0x0803212c   0x0000005e   Code   RO         2166    x$fpl$dfix          fz_wm.l(dfix.o)
    0x0803218a   0x00000002   PAD
    0x0803218c   0x0000005a   Code   RO         2170    x$fpl$dfixu         fz_wm.l(dfixu.o)
    0x080321e6   0x0000002e   Code   RO         2175    x$fpl$dflt          fz_wm.l(dflt_clz.o)
    0x08032214   0x00000026   Code   RO         2174    x$fpl$dfltu         fz_wm.l(dflt_clz.o)
    0x0803223a   0x00000002   PAD
    0x0803223c   0x00000078   Code   RO         2180    x$fpl$dleqf         fz_wm.l(dleqf.o)
    0x080322b4   0x00000154   Code   RO         2182    x$fpl$dmul          fz_wm.l(dmul.o)
    0x08032408   0x0000009c   Code   RO         2351    x$fpl$dnaninf       fz_wm.l(dnaninf.o)
    0x080324a4   0x0000000c   Code   RO         2353    x$fpl$dretinf       fz_wm.l(dretinf.o)
    0x080324b0   0x0000006c   Code   RO         2184    x$fpl$drleqf        fz_wm.l(drleqf.o)
    0x0803251c   0x00000016   Code   RO         2155    x$fpl$drsb          fz_wm.l(daddsub_clz.o)
    0x08032532   0x00000002   PAD
    0x08032534   0x00000198   Code   RO         2355    x$fpl$dsqrt         fz_wm.l(dsqrt_umaal.o)
    0x080326cc   0x000001d4   Code   RO         2156    x$fpl$dsub          fz_wm.l(daddsub_clz.o)
    0x080328a0   0x00000056   Code   RO         2186    x$fpl$f2d           fz_wm.l(f2d.o)
    0x080328f6   0x0000008c   Code   RO         2357    x$fpl$fnaninf       fz_wm.l(fnaninf.o)
    0x08032982   0x0000000a   Code   RO         2517    x$fpl$fpinit        fz_wm.l(fpinit.o)
    0x0803298c   0x0000000a   Code   RO         2359    x$fpl$fretinf       fz_wm.l(fretinf.o)
    0x08032996   0x00000064   Code   RO         2457    x$fpl$retnan        fz_wm.l(retnan.o)
    0x080329fa   0x0000005c   Code   RO         2361    x$fpl$scalbn        fz_wm.l(scalbn.o)
    0x08032a56   0x00000030   Code   RO         2506    x$fpl$trapveneer    fz_wm.l(trapv.o)
    0x08032a86   0x00000000   Code   RO         2363    x$fpl$usenofp       fz_wm.l(usenofp.o)
    0x08032a86   0x00000100   Data   RO          817    .constdata          os_core.o
    0x08032b86   0x00000002   PAD
    0x08032b88   0x00000018   Data   RO         1597    .constdata          ms5611.o
    0x08032ba0   0x00000020   Data   RO         1763    .constdata          pose_fushion.o
    0x08032bc0   0x0000000c   Data   RO         1821    .constdata          pose_kf.o
    0x08032bcc   0x0000000c   Data   RO         1858    .constdata          baro_kf.o
    0x08032bd8   0x00000050   Data   RO         2191    .constdata          m_wm.l(acos.o)
    0x08032c28   0x00000050   Data   RO         2205    .constdata          m_wm.l(asin.o)
    0x08032c78   0x00000098   Data   RO         2219    .constdata          m_wm.l(atan.o)
    0x08032d10   0x00000088   Data   RO         2287    .constdata          m_wm.l(pow.o)
    0x08032d98   0x00000030   Data   RO         2365    .constdata          m_wm.l(cos_i.o)
    0x08032dc8   0x00000008   Data   RO         2401    .constdata          m_wm.l(qnan.o)
    0x08032dd0   0x000000c8   Data   RO         2404    .constdata          m_wm.l(rred.o)
    0x08032e98   0x00000020   Data   RO         2408    .constdata          m_wm.l(rredf.o)
    0x08032eb8   0x00000028   Data   RO         2411    .constdata          m_wm.l(sin_i.o)
    0x08032ee0   0x00000060   Data   RO         2417    .constdata          m_wm.l(tan_i.o)
    0x08032f40   0x00000020   Data   RO         2585    Region$$Table       anon$$obj.o


    Execution Region RW_IRAM1 (Base: 0x20000000, Size: 0x0001f288, Max: 0x00020000, ABSOLUTE, COMPRESSED[0x000006d8])

    Base Addr    Size         Type   Attr      Idx    E Section Name        Object

    0x20000000   0x0000005f   Data   RW            5    .data               ucos_task.o
    0x2000005f   0x00000001   PAD
    0x20000060   0x0000000d   Data   RW          275    .data               main.o
    0x2000006d   0x00000001   Data   RW          366    .data               stm32f4xx_it.o
    0x2000006e   0x00000002   PAD
    0x20000070   0x00000014   Data   RW          418    .data               system_stm32f4xx.o
    0x20000084   0x00000004   Data   RW          451    .data               delay.o
    0x20000088   0x00000010   Data   RW          554    .data               stm32f4xx_rcc.o
    0x20000098   0x0000005c   Data   RW          818    .data               os_core.o
    0x200000f4   0x00000006   Data   RW         1021    .data               os_cpu_c.o
    0x200000fa   0x00000002   PAD
    0x200000fc   0x0000002e   Data   RW         1071    .data               flash.o
    0x2000012a   0x00000002   PAD
    0x2000012c   0x0000001f   Data   RW         1102    .data               led_fc.o
    0x2000014b   0x00000001   PAD
    0x2000014c   0x00000058   Data   RW         1130    .data               pwm_out.o
    0x200001a4   0x0000004c   Data   RW         1232    .data               bat.o
    0x200001f0   0x00000224   Data   RW         1259    .data               beep.o
    0x20000414   0x0000000a   Data   RW         1306    .data               nrf.o
    0x2000041e   0x00000002   Data   RW         1359    .data               flash_w25.o
    0x20000420   0x00000012   Data   RW         1387    .data               iic_vl53.o
    0x20000432   0x0000002e   Data   RW         1437    .data               usart_fc.o
    0x20000460   0x00000015   Data   RW         1465    .data               rc_mine.o
    0x20000475   0x00000003   PAD
    0x20000478   0x00000078   Data   RW         1501    .data               mems.o
    0x200004f0   0x00000005   Data   RW         1533    .data               icm20602.o
    0x200004f5   0x00000003   PAD
    0x200004f8   0x0000008c   Data   RW         1561    .data               imu.o
    0x20000584   0x00000010   Data   RW         1598    .data               ms5611.o
    0x20000594   0x00000062   Data   RW         1625    .data               vmc_demo.o
    0x200005f6   0x00000002   PAD
    0x200005f8   0x00000038   Data   RW         1657    .data               vmc_sdk.o
    0x20000630   0x0000000c   Data   RW         1712    .data               fliter.o
    0x2000063c   0x00000404   Data   RW         1736    .data               my_math.o
    0x20000a40   0x00000040   Data   RW         1764    .data               pose_fushion.o
    0x20000a80   0x000000b5   Data   RW         1791    .data               baro_fushion.o
    0x20000b35   0x00000003   PAD
    0x20000b38   0x00000010   Data   RW         1859    .data               baro_kf.o
    0x20000b48   0x00000024   Data   RW         1874    .data               rt_nonfinite.o
    0x20000b6c   0x0000005c   Data   RW         1926    .data               sbus_oldx.lib(sbus.o)
    0x20000bc8   0x0000015a   Data   RW         2040    .data               F407_FC.lib(vmc.o)
    0x20000d22   0x00000002   PAD
    0x20000d24   0x00017248   Zero   RW            4    .bss                ucos_task.o
    0x20017f6c   0x00000500   Zero   RW          274    .bss                main.o
    0x2001846c   0x00001288   Zero   RW          816    .bss                os_core.o
    0x200196f4   0x0000000c   Zero   RW         1101    .bss                led_fc.o
    0x20019700   0x000000b4   Zero   RW         1160    .bss                time.o
    0x200197b4   0x000000a6   Zero   RW         1231    .bss                bat.o
    0x2001985a   0x00000040   Zero   RW         1305    .bss                nrf.o
    0x2001989a   0x00001000   Zero   RW         1358    .bss                flash_w25.o
    0x2001a89a   0x000000ac   Zero   RW         1386    .bss                iic_vl53.o
    0x2001a946   0x00000002   PAD
    0x2001a948   0x00000846   Zero   RW         1436    .bss                usart_fc.o
    0x2001b18e   0x00000002   PAD
    0x2001b190   0x000001b4   Zero   RW         1464    .bss                rc_mine.o
    0x2001b344   0x0000031c   Zero   RW         1500    .bss                mems.o
    0x2001b660   0x0000016c   Zero   RW         1532    .bss                icm20602.o
    0x2001b7cc   0x00000060   Zero   RW         1560    .bss                imu.o
    0x2001b82c   0x00000050   Zero   RW         1596    .bss                ms5611.o
    0x2001b87c   0x000001e4   Zero   RW         1624    .bss                vmc_demo.o
    0x2001ba60   0x00000040   Zero   RW         1656    .bss                vmc_sdk.o
    0x2001baa0   0x000009f6   Zero   RW         1711    .bss                fliter.o
    0x2001c496   0x00000002   PAD
    0x2001c498   0x000006e0   Zero   RW         1735    .bss                my_math.o
    0x2001cb78   0x000001e0   Zero   RW         1762    .bss                pose_fushion.o
    0x2001cd58   0x00000020   Zero   RW         1790    .bss                baro_fushion.o
    0x2001cd78   0x000003c0   Zero   RW         1857    .bss                baro_kf.o
    0x2001d138   0x000000a8   Zero   RW         2016    .bss                cycle_cal_oldx.lib(cycle_cal_oldx.o)
    0x2001d1e0   0x00001a48   Zero   RW         2039    .bss                F407_FC.lib(vmc.o)
    0x2001ec28   0x00000060   Zero   RW         2445    .bss                c_w.l(libspace.o)
    0x2001ec88   0x00000200   Zero   RW          442    HEAP                startup_stm32f40_41xxx.o
    0x2001ee88   0x00000400   Zero   RW          441    STACK               startup_stm32f40_41xxx.o


==============================================================================

Image component sizes


      Code (inc. data)   RO Data    RW Data    ZI Data      Debug   Object Name

       416         46          0        181         32       2880   baro_fushion.o
      2820         88         12         16        960       3331   baro_kf.o
      2820        226          0         76        166       4197   bat.o
      1412        154          0        548          0       5256   beep.o
       264         18          0          4          0       1375   delay.o
      3132        152          0         46          0       4034   flash.o
       880         14          0          2       4096       4301   flash_w25.o
      1454         48          0         12       2550       3855   fliter.o
       880         16          0          5        364       5471   icm20602.o
      7668        254          0         18        172      19340   iic_vl53.o
      8252        434          0        140         96       8430   imu.o
      2928        228          0         31         12       3990   led_fc.o
       596         98          0         13       1280       2189   main.o
      4996        280          0        120        796       7168   mems.o
       224         20          0          0          0       1777   misc.o
      1488        100         24         16         80       5759   ms5611.o
      6090        240          0       1028       1760      11495   my_math.o
       648         18          0         10         64       3600   nrf.o
      2196        218        256         92       4744      15939   os_core.o
       200         32          0          0          0        308   os_cpu_a.o
       488          8          0          6          0      11723   os_cpu_c.o
      2060         42          0          0          0       7184   os_flag.o
       972         16          0          0          0       4286   os_mbox.o
      1512         30          0          0          0       5745   os_q.o
       908         18          0          0          0       4018   os_sem.o
      1988         70          0          0          0       7861   os_task.o
       432         30          0          0          0       1858   os_time.o
      1588         94          0          0          0       5705   os_tmr.o
      1232         68         32         64        480       2400   pose_fushion.o
      4960         52         12          0          0       3674   pose_kf.o
      1856         84          0         88          0       3657   pwm_out.o
      3328        128          0         21        436       7333   rc_mine.o
       108          0          0          0          0        989   rng.o
       256         26          0         36          0       2464   rt_nonfinite.o
       308         22          0          0          0       1914   rtgetinf.o
       200         18          0          0          0       1289   rtgetnan.o
       648         24          0          0          0       1790   spi.o
        64         26        392          0       1536        816   startup_stm32f40_41xxx.o
      1124         24          0          0          0      10646   stm32f4xx_adc.o
       936         32          0          0          0       6357   stm32f4xx_dma.o
      1684         28          0          0          0       9382   stm32f4xx_flash.o
       660         44          0          0          0       4121   stm32f4xx_gpio.o
        32          4          0          1          0     228775   stm32f4xx_it.o
        64          6          0          0          0       1325   stm32f4xx_iwdg.o
      1628         52          0         16          0      12972   stm32f4xx_rcc.o
       160          4          0          0          0       1788   stm32f4xx_rng.o
      1152         36          0          0          0       6869   stm32f4xx_spi.o
      3234         60          0          0          0      22976   stm32f4xx_tim.o
      1108         34          0          0          0       7844   stm32f4xx_usart.o
       528         46          0         20          0       1719   system_stm32f4xx.o
       380         22          0          0        180      29329   time.o
      7792        498          0         95      94792     341467   ucos_task.o
      5584        318          0         46       2118      12342   usart_fc.o
     25760       1398          0         98        484      24324   vmc_demo.o
      3876        186          0         56         64       6398   vmc_sdk.o
        44          0          0          0          0        682   watch_dog.o

    ----------------------------------------------------------------------
    128024       6232        762       2924     117268     918717   Object Totals
         0          0         32          0          0          0   (incl. Generated)
         6          0          2         19          6          0   (incl. Padding)

    ----------------------------------------------------------------------

      Code (inc. data)   RO Data    RW Data    ZI Data      Debug   Library Member Name

     59868       2666          0        346       6728     257168   vmc.o
        90          0          0          0          0          0   __dczerorl2.o
         8          0          0          0          0         68   __main.o
         0          0          0          0          0          0   __rtentry.o
        12          0          0          0          0          0   __rtentry2.o
         6          0          0          0          0          0   __rtentry4.o
        52          8          0          0          0          0   __scatter.o
        28          0          0          0          0          0   __scatter_zi.o
        22          0          0          0          0        100   _rserrno.o
        18          0          0          0          0         80   exit.o
         6          0          0          0          0        152   heapauxi.o
         0          0          0          0          0          0   indicate_semi.o
         2          0          0          0          0          0   libinit.o
         6          0          0          0          0          0   libinit2.o
         2          0          0          0          0          0   libshutdown.o
         2          0          0          0          0          0   libshutdown2.o
         8          4          0          0         96         68   libspace.o
         8          4          0          0          0         68   rt_errno_addr_intlibspace.o
        78          0          0          0          0         80   rt_memclr_w.o
       100          0          0          0          0         80   rt_memcpy_w.o
         2          0          0          0          0          0   rtexit.o
        10          0          0          0          0          0   rtexit2.o
        12          4          0          0          0         68   sys_exit.o
        74          0          0          0          0         80   sys_stackheap_outer.o
         2          0          0          0          0         68   use_no_semi.o
      2584         12          0          0        168       4813   cycle_cal_oldx.o
        24          0          0          0          0        164   basic.o
        98          4          0          0          0        140   d2f.o
       826         16          0          0          0        492   daddsub_clz.o
        16          4          0          0          0        116   dcheck1.o
        24          0          0          0          0        116   dcmpi.o
       688        140          0          0          0        256   ddiv.o
       120          4          0          0          0        140   deqf.o
        94          4          0          0          0        140   dfix.o
        90          4          0          0          0        140   dfixu.o
        84          0          0          0          0        232   dflt_clz.o
       120          4          0          0          0        140   dleqf.o
       340         12          0          0          0        152   dmul.o
       156          4          0          0          0        140   dnaninf.o
        12          0          0          0          0        116   dretinf.o
       108          0          0          0          0        128   drleqf.o
       408         56          0          0          0        168   dsqrt_umaal.o
        86          4          0          0          0        132   f2d.o
       140          4          0          0          0        132   fnaninf.o
        10          0          0          0          0        116   fpinit.o
        10          0          0          0          0        116   fretinf.o
       100          0          0          0          0        116   retnan.o
        92          0          0          0          0        116   scalbn.o
        48          0          0          0          0        116   trapv.o
         0          0          0          0          0          0   usenofp.o
       856        118         80          0          0        288   acos.o
       864         94         80          0          0        280   asin.o
       744        106        152          0          0        352   atan.o
       496         64          0          0          0        192   atan2.o
       592         90          0          0          0        184   atan2f.o
       200         20          0          0          0        164   cos.o
       368         46         48          0          0        200   cos_i.o
       336         56          0          0          0        136   cosf.o
       184         44          0          0          0        744   dunder.o
        44          0          0          0          0        248   fabs.o
        48          0          0          0          0        124   fpclassify.o
        38          0          0          0          0        116   fpclassifyf.o
        44         12          0          0          0        464   funder.o
       248          0          0          0          0        152   poly.o
      3152        296        136          0          0        352   pow.o
         0          0          8          0          0          0   qnan.o
      1080        142        200          0          0        188   rred.o
       340         24         32          0          0        160   rredf.o
       200         20          0          0          0        164   sin.o
       304         24         40          0          0        208   sin_i.o
       400         56          0          0          0        212   sinf.o
       232          0          0          0          0        296   sqrt.o
       128         20          0          0          0        144   tan.o
       848         84         96          0          0        196   tan_i.o
       608         26          0         92          0     217216   sbus.o

    ----------------------------------------------------------------------
     79078       4300        872        440       6992     489297   Library Totals
        30          0          0          2          0          0   (incl. Padding)

    ----------------------------------------------------------------------

      Code (inc. data)   RO Data    RW Data    ZI Data      Debug   Library Name

     59868       2666          0        346       6728     257168   F407_FC.lib
       548         20          0          0         96        912   c_w.l
      2584         12          0          0        168       4813   cycle_cal_oldx.lib
      3694        260          0          0          0       3624   fz_wm.l
     11746       1316        872          0          0       5564   m_wm.l
       608         26          0         92          0     217216   sbus_oldx.lib

    ----------------------------------------------------------------------
     79078       4300        872        440       6992     489297   Library Totals

    ----------------------------------------------------------------------

==============================================================================


      Code (inc. data)   RO Data    RW Data    ZI Data      Debug   

    207102      10532       1634       3364     124260    1388950   Grand Totals
    207102      10532       1634       1752     124260    1388950   ELF Image Totals (compressed)
    207102      10532       1634       1752          0          0   ROM Totals

==============================================================================

    Total RO  Size (Code + RO Data)               208736 ( 203.84kB)
    Total RW  Size (RW Data + ZI Data)            127624 ( 124.63kB)
    Total ROM Size (Code + RO Data + RW Data)     210488 ( 205.55kB)

==============================================================================

